
HDMI_DEMO.elf:     file format elf32-littlenios2
HDMI_DEMO.elf
architecture: nios2, flags 0x00000112:
EXEC_P, HAS_SYMS, D_PAGED
start address 0x000801e8

Program Header:
    LOAD off    0x00001000 vaddr 0x00080000 paddr 0x00080000 align 2**12
         filesz 0x00000020 memsz 0x00000020 flags r-x
    LOAD off    0x00001020 vaddr 0x00080020 paddr 0x00080020 align 2**12
         filesz 0x0001d73c memsz 0x0001d73c flags r-x
    LOAD off    0x0001e75c vaddr 0x0009d75c paddr 0x0009f5d4 align 2**12
         filesz 0x00001e78 memsz 0x00001e78 flags rw-
    LOAD off    0x0002144c vaddr 0x000a144c paddr 0x000a144c align 2**12
         filesz 0x00000000 memsz 0x000003f0 flags rw-

Sections:
Idx Name          Size      VMA       LMA       File off  Algn
  0 .entry        00000020  00080000  00080000  00001000  2**5
                  CONTENTS, ALLOC, LOAD, READONLY, CODE
  1 .exceptions   000001c8  00080020  00080020  00001020  2**2
                  CONTENTS, ALLOC, LOAD, READONLY, CODE
  2 .text         000195b0  000801e8  000801e8  000011e8  2**2
                  CONTENTS, ALLOC, LOAD, READONLY, CODE
  3 .rodata       00003fc4  00099798  00099798  0001a798  2**2
                  CONTENTS, ALLOC, LOAD, READONLY, DATA
  4 .rwdata       00001e78  0009d75c  0009f5d4  0001e75c  2**2
                  CONTENTS, ALLOC, LOAD, DATA, SMALL_DATA
  5 .bss          000003f0  000a144c  000a144c  0002144c  2**2
                  ALLOC, SMALL_DATA
  6 .comment      00000023  00000000  00000000  000205d4  2**0
                  CONTENTS, READONLY
  7 .debug_aranges 00001010  00000000  00000000  000205f8  2**3
                  CONTENTS, READONLY, DEBUGGING
  8 .debug_info   0002d522  00000000  00000000  00021608  2**0
                  CONTENTS, READONLY, DEBUGGING
  9 .debug_abbrev 0000b443  00000000  00000000  0004eb2a  2**0
                  CONTENTS, READONLY, DEBUGGING
 10 .debug_line   0000d172  00000000  00000000  00059f6d  2**0
                  CONTENTS, READONLY, DEBUGGING
 11 .debug_frame  00002098  00000000  00000000  000670e0  2**2
                  CONTENTS, READONLY, DEBUGGING
 12 .debug_str    00004e4b  00000000  00000000  00069178  2**0
                  CONTENTS, READONLY, DEBUGGING
 13 .debug_loc    00012a64  00000000  00000000  0006dfc3  2**0
                  CONTENTS, READONLY, DEBUGGING
 14 .debug_alt_sim_info 00000060  00000000  00000000  00080a28  2**2
                  CONTENTS, READONLY, DEBUGGING
 15 .debug_ranges 00000b70  00000000  00000000  00080a88  2**3
                  CONTENTS, READONLY, DEBUGGING
 16 .thread_model 00000003  00000000  00000000  00085173  2**0
                  CONTENTS, READONLY
 17 .cpu          0000000a  00000000  00000000  00085176  2**0
                  CONTENTS, READONLY
 18 .qsys         00000001  00000000  00000000  00085180  2**0
                  CONTENTS, READONLY
 19 .simulation_enabled 00000001  00000000  00000000  00085181  2**0
                  CONTENTS, READONLY
 20 .sysid_hash   00000004  00000000  00000000  00085182  2**0
                  CONTENTS, READONLY
 21 .sysid_base   00000004  00000000  00000000  00085186  2**0
                  CONTENTS, READONLY
 22 .sysid_time   00000004  00000000  00000000  0008518a  2**0
                  CONTENTS, READONLY
 23 .stderr_dev   00000009  00000000  00000000  0008518e  2**0
                  CONTENTS, READONLY
 24 .stdin_dev    00000009  00000000  00000000  00085197  2**0
                  CONTENTS, READONLY
 25 .stdout_dev   00000009  00000000  00000000  000851a0  2**0
                  CONTENTS, READONLY
 26 .sopc_system_name 00000009  00000000  00000000  000851a9  2**0
                  CONTENTS, READONLY
 27 .quartus_project_dir 0000001a  00000000  00000000  000851b2  2**0
                  CONTENTS, READONLY
 28 .sopcinfo     00063d18  00000000  00000000  000851cc  2**0
                  CONTENTS, READONLY
SYMBOL TABLE:
00080000 l    d  .entry	00000000 .entry
00080020 l    d  .exceptions	00000000 .exceptions
000801e8 l    d  .text	00000000 .text
00099798 l    d  .rodata	00000000 .rodata
0009d75c l    d  .rwdata	00000000 .rwdata
000a144c l    d  .bss	00000000 .bss
00000000 l    d  .comment	00000000 .comment
00000000 l    d  .debug_aranges	00000000 .debug_aranges
00000000 l    d  .debug_info	00000000 .debug_info
00000000 l    d  .debug_abbrev	00000000 .debug_abbrev
00000000 l    d  .debug_line	00000000 .debug_line
00000000 l    d  .debug_frame	00000000 .debug_frame
00000000 l    d  .debug_str	00000000 .debug_str
00000000 l    d  .debug_loc	00000000 .debug_loc
00000000 l    d  .debug_alt_sim_info	00000000 .debug_alt_sim_info
00000000 l    d  .debug_ranges	00000000 .debug_ranges
00000000 l    df *ABS*	00000000 ../HDMI_DEMO_bsp//obj/HAL/src/crt0.o
00080238 l       .text	00000000 alt_after_alt_main
00000000 l    df *ABS*	00000000 alt_exception_entry.o
000800b0 l       .exceptions	00000000 alt_exception_unknown
00000000 l    df *ABS*	00000000 alt_irq_handler.c
00000000 l    df *ABS*	00000000 adv7513.c
0009d75c l     O .rwdata	000000f0 vic_table.3698
0008093c l     F .text	00000070 adv7513_config_csc
000809ac l     F .text	000000d8 adv7513_video_in_format
00080a84 l     F .text	00000118 adv7513_video_out_format
00080b9c l     F .text	00000410 adv7513_avi_infoframe
00080fac l     F .text	0000017c adv7513_video_in_format_3d
00081128 l     F .text	000004b8 adv7513_avi_infoframe_3d
000815e0 l     F .text	0000004c adv7513_vendor_infoframe_3d
0008162c l     F .text	00000124 adv7513_video_out_format_3d
00081750 l     F .text	000000b0 adv7513_video_init
00081800 l     F .text	00000094 adv7513_video_init_3d
00000000 l    df *ABS*	00000000 edid.c
0008192c l     F .text	000000a8 eb_establish_timing
000819d4 l     F .text	000000ac eb_establish_timing_i
00081a80 l     F .text	000000ac eb_establish_timing_rb
0009d84c l     O .rwdata	00000040 sad_format.3990
0009d88c l     O .rwdata	000000f0 vic_table.4005
0009f590 l     O .rwdata	00000008 header.4101
00000000 l    df *ABS*	00000000 encoder.c
00000000 l    df *ABS*	00000000 i2c.c
00000000 l    df *ABS*	00000000 main.c
0008b4f4 l     F .text	00000048 adv7513_int_mask_to_long
0008b53c l     F .text	0000005c adv7513_long_to_int_mask
0008b598 l     F .text	000002ac bin_dump
0008b844 l     F .text	000003c8 adv7513_int_handler
0008be2c l     F .text	000000ac cmd_help
00000000 l    df *ABS*	00000000 fp-bit.c
0008c764 l     F .text	000001f4 _fpadd_parts
00000000 l    df *ABS*	00000000 fp-bit.c
00000000 l    df *ABS*	00000000 fp-bit.c
00000000 l    df *ABS*	00000000 fp-bit.c
00000000 l    df *ABS*	00000000 fp-bit.c
00000000 l    df *ABS*	00000000 fp-bit.c
00000000 l    df *ABS*	00000000 fp-bit.c
00000000 l    df *ABS*	00000000 lib2-divmod.c
0008ce18 l     F .text	00000074 udivmodsi4
00000000 l    df *ABS*	00000000 libgcc2.c
00000000 l    df *ABS*	00000000 libgcc2.c
00000000 l    df *ABS*	00000000 fp-bit.c
00000000 l    df *ABS*	00000000 fp-bit.c
00000000 l    df *ABS*	00000000 fp-bit.c
00000000 l    df *ABS*	00000000 libgcc2.c
00000000 l    df *ABS*	00000000 libgcc2.c
00000000 l    df *ABS*	00000000 libgcc2.c
00000000 l    df *ABS*	00000000 fgets.c
00000000 l    df *ABS*	00000000 findfp.c
0008d654 l     F .text	00000008 __fp_lock
0008d65c l     F .text	00000008 __fp_unlock
00000000 l    df *ABS*	00000000 fwalk.c
00000000 l    df *ABS*	00000000 impure.c
0009d9f0 l     O .rwdata	00000400 impure_data
00000000 l    df *ABS*	00000000 mallocr.c
00000000 l    df *ABS*	00000000 memchr.c
00000000 l    df *ABS*	00000000 memcmp.c
00000000 l    df *ABS*	00000000 memcpy.c
00000000 l    df *ABS*	00000000 memset.c
00000000 l    df *ABS*	00000000 printf.c
00000000 l    df *ABS*	00000000 putchar.c
00000000 l    df *ABS*	00000000 puts.c
00000000 l    df *ABS*	00000000 refill.c
0008e67c l     F .text	0000001c lflush
00000000 l    df *ABS*	00000000 sbrkr.c
00000000 l    df *ABS*	00000000 stdio.c
00000000 l    df *ABS*	00000000 strlen.c
00000000 l    df *ABS*	00000000 strncpy.c
00000000 l    df *ABS*	00000000 strtoul.c
00000000 l    df *ABS*	00000000 vfprintf.c
0008ee14 l     F .text	00000034 __sprint_r
0009d306 l     O .rodata	00000010 blanks.3515
0009d316 l     O .rodata	00000010 zeroes.3516
00000000 l    df *ABS*	00000000 writer.c
00000000 l    df *ABS*	00000000 wsetup.c
00000000 l    df *ABS*	00000000 closer.c
00000000 l    df *ABS*	00000000 ctype_.c
0009d427 l     O .rodata	00000180 _ctype_b
00000000 l    df *ABS*	00000000 dtoa.c
00090ea8 l     F .text	00000208 quorem
00000000 l    df *ABS*	00000000 fclose.c
00000000 l    df *ABS*	00000000 fflush.c
00000000 l    df *ABS*	00000000 mallocr.c
00000000 l    df *ABS*	00000000 fvwrite.c
00000000 l    df *ABS*	00000000 int_errno.c
00000000 l    df *ABS*	00000000 locale.c
0009d5c8 l     O .rodata	00000030 lconv
00000000 l    df *ABS*	00000000 lseekr.c
00000000 l    df *ABS*	00000000 makebuf.c
00000000 l    df *ABS*	00000000 memmove.c
00000000 l    df *ABS*	00000000 mprec.c
0009d710 l     O .rodata	0000000c p05.2435
00000000 l    df *ABS*	00000000 putc.c
00000000 l    df *ABS*	00000000 readr.c
00000000 l    df *ABS*	00000000 mallocr.c
00000000 l    df *ABS*	00000000 s_isinfd.c
00000000 l    df *ABS*	00000000 s_isnand.c
00000000 l    df *ABS*	00000000 strcmp.c
00000000 l    df *ABS*	00000000 wbuf.c
00000000 l    df *ABS*	00000000 mallocr.c
00000000 l    df *ABS*	00000000 fstatr.c
00000000 l    df *ABS*	00000000 isattyr.c
00000000 l    df *ABS*	00000000 libgcc2.c
00000000 l    df *ABS*	00000000 libgcc2.c
00000000 l    df *ABS*	00000000 fp-bit.c
00095e34 l     F .text	00000354 _fpadd_parts
00000000 l    df *ABS*	00000000 fp-bit.c
00000000 l    df *ABS*	00000000 fp-bit.c
00000000 l    df *ABS*	00000000 fp-bit.c
00000000 l    df *ABS*	00000000 fp-bit.c
00000000 l    df *ABS*	00000000 fp-bit.c
00000000 l    df *ABS*	00000000 fp-bit.c
00000000 l    df *ABS*	00000000 fp-bit.c
00000000 l    df *ABS*	00000000 fp-bit.c
00000000 l    df *ABS*	00000000 fp-bit.c
00000000 l    df *ABS*	00000000 fp-bit.c
00000000 l    df *ABS*	00000000 fp-bit.c
00000000 l    df *ABS*	00000000 fp-bit.c
00000000 l    df *ABS*	00000000 fp-bit.c
00000000 l    df *ABS*	00000000 alt_close.c
00096d48 l     F .text	00000054 alt_get_errno
00000000 l    df *ABS*	00000000 alt_dev.c
00096e68 l     F .text	0000002c alt_dev_null_write
00000000 l    df *ABS*	00000000 alt_errno.c
00000000 l    df *ABS*	00000000 alt_fstat.c
00096e94 l     F .text	00000054 alt_get_errno
00000000 l    df *ABS*	00000000 alt_iic.c
00000000 l    df *ABS*	00000000 alt_iic_isr_register.c
00000000 l    df *ABS*	00000000 alt_irq_vars.c
00000000 l    df *ABS*	00000000 alt_isatty.c
00097268 l     F .text	00000054 alt_get_errno
00000000 l    df *ABS*	00000000 alt_load.c
00097398 l     F .text	0000006c alt_load_section
00000000 l    df *ABS*	00000000 alt_lseek.c
00097488 l     F .text	00000054 alt_get_errno
00000000 l    df *ABS*	00000000 alt_main.c
00000000 l    df *ABS*	00000000 alt_malloc_lock.c
00000000 l    df *ABS*	00000000 alt_read.c
0009766c l     F .text	00000054 alt_get_errno
00000000 l    df *ABS*	00000000 alt_release_fd.c
00000000 l    df *ABS*	00000000 alt_sbrk.c
0009f5c8 l     O .rwdata	00000004 heap_end
00000000 l    df *ABS*	00000000 alt_usleep.c
00000000 l    df *ABS*	00000000 alt_write.c
00097974 l     F .text	00000054 alt_get_errno
00000000 l    df *ABS*	00000000 alt_sys_init.c
00097ab8 l     F .text	0000003c alt_dev_reg
0009e52c l     O .rwdata	00001060 jtag_uart
00000000 l    df *ABS*	00000000 altera_avalon_jtag_uart_fd.c
00000000 l    df *ABS*	00000000 altera_avalon_jtag_uart_init.c
00097dc8 l     F .text	00000204 altera_avalon_jtag_uart_irq
00097fcc l     F .text	000000a4 altera_avalon_jtag_uart_timeout
00000000 l    df *ABS*	00000000 altera_avalon_jtag_uart_ioctl.c
00000000 l    df *ABS*	00000000 altera_avalon_jtag_uart_read.c
00000000 l    df *ABS*	00000000 altera_avalon_jtag_uart_write.c
00000000 l    df *ABS*	00000000 altera_avalon_timer_sc.c
00098610 l     F .text	00000078 alt_avalon_timer_sc_irq
00000000 l    df *ABS*	00000000 alt_alarm_start.c
00000000 l    df *ABS*	00000000 alt_busy_sleep.c
00000000 l    df *ABS*	00000000 alt_dcache_flush_all.c
00000000 l    df *ABS*	00000000 alt_dev_llist_insert.c
000989f0 l     F .text	00000054 alt_get_errno
00000000 l    df *ABS*	00000000 alt_do_ctors.c
00000000 l    df *ABS*	00000000 alt_do_dtors.c
00000000 l    df *ABS*	00000000 alt_icache_flush_all.c
00000000 l    df *ABS*	00000000 alt_io_redirect.c
00098bdc l     F .text	000000c4 alt_open_fd
00000000 l    df *ABS*	00000000 alt_open.c
00098d1c l     F .text	00000054 alt_get_errno
00098d70 l     F .text	000000cc alt_file_locked
00000000 l    df *ABS*	00000000 alt_tick.c
00000000 l    df *ABS*	00000000 altera_nios2_qsys_irq.c
00000000 l    df *ABS*	00000000 alt_find_dev.c
00000000 l    df *ABS*	00000000 alt_find_file.c
00000000 l    df *ABS*	00000000 alt_get_fd.c
00000000 l    df *ABS*	00000000 alt_icache_flush.c
00000000 l    df *ABS*	00000000 atexit.c
00000000 l    df *ABS*	00000000 exit.c
00000000 l    df *ABS*	00000000 __atexit.c
00000000 l    df *ABS*	00000000 __call_atexit.c
00000000 l    df *ABS*	00000000 alt_exit.c
00000000 l    df *ABS*	00000000 
0008e5c8 g     F .text	0000001c putchar
00094570 g     F .text	00000074 _mprec_log10
0008ab38 g     F .text	00000104 I2C_Read
00094660 g     F .text	00000084 __any_on
0009527c g     F .text	00000064 _isatty_r
0009d5f8 g     O .rodata	00000028 __mprec_tinytens
000975b0 g     F .text	0000007c alt_main
0008d4b0 g     F .text	00000044 __ashldi3
0008e5e4 g     F .text	00000084 _puts_r
000a15ac g     O .bss	00000100 alt_irq
00093400 g     F .text	0000006c _lseek_r
0009f5d4 g       *ABS*	00000000 __flash_rwdata_start
000966d4 g     F .text	0000005c __eqdf2
000a183c g       *ABS*	00000000 __alt_heap_start
0008e584 g     F .text	0000003c printf
000807a4 g     F .text	000000d4 adv7513_edid_read
0008e9c4 g     F .text	0000005c __sseek
0008d6e4 g     F .text	0000010c __sinit
00095000 g     F .text	0000013c __swbuf_r
00093324 g     F .text	0000009c _setlocale_r
0008d670 g     F .text	00000064 __sfmoreglue
0009764c g     F .text	00000020 __malloc_unlock
0008cb8c g     F .text	0000013c __divsf3
00093614 g     F .text	00000128 memmove
0008d6d4 g     F .text	00000010 _cleanup
0009373c g     F .text	000000a8 _Balloc
00080360 g     F .text	00000130 adv7513_hpd_probe
000a1478 g     O .bss	00000004 alt_exception_old_stack_limit
0009678c g     F .text	00000064 __gtdf2
00000000  w      *UND*	00000000 __errno
0008023c g     F .text	00000124 adv7513_chip_identify
0008ae94 g     F .text	00000130 i2c_write
00080000 g     F .entry	0000001c __reset
00080020 g       *ABS*	00000000 __flash_exceptions_start
00095214 g     F .text	00000068 _fstat_r
000a1458 g     O .bss	00000004 errno
0008cde0 g     F .text	00000038 __make_dp
000a1470 g     O .bss	00000004 alt_argv
000a758c g       *ABS*	00000000 _gp
00097940 g     F .text	00000034 usleep
0008c9a4 g     F .text	00000058 __subsf3
0008d630 g     F .text	00000024 fgets
0009e22c g     O .rwdata	00000300 alt_fd_list
0008e5c0 g     F .text	00000008 _putchar_r
00099154 g     F .text	00000094 alt_find_dev
0008e384 g     F .text	000000f8 memcpy
00080668 g     F .text	00000070 adv7513_power_state
0008d664 g     F .text	0000000c _cleanup_r
000968b0 g     F .text	000000d4 __floatsidf
00098ca0 g     F .text	0000007c alt_io_redirect
00096854 g     F .text	0000005c __ltdf2
00099798 g       *ABS*	00000000 __DTOR_END__
0008e668 g     F .text	00000014 puts
000944cc g     F .text	000000a4 __ratio
000981cc g     F .text	0000021c altera_avalon_jtag_uart_read
00000000  w      *UND*	00000000 malloc
0008e558 g     F .text	0000002c _printf_r
0008cf38 g     F .text	00000008 __udivsi3
000972bc g     F .text	000000dc isatty
0009d648 g     O .rodata	000000c8 __mprec_tens
000933c0 g     F .text	0000000c __locale_charset
000993b4 g     F .text	0000008c alt_icache_flush
0008ac3c g     F .text	0000015c I2C_MultipleRead
000a1454 g     O .bss	00000004 __malloc_top_pad
0008edf0 g     F .text	00000024 strtoul
0009f5ac g     O .rwdata	00000004 __mb_cur_max
000933cc g     F .text	0000000c _localeconv_r
00093b3c g     F .text	0000003c __i2b
00092e40 g     F .text	000004e4 __sfvwrite_r
0009d97c g     O .rwdata	00000074 encoder
0008e884 g     F .text	00000064 _sbrk_r
00094890 g     F .text	0000006c _read_r
0009e1f8 g     O .rwdata	0000000c __lc_ctype
0009f5c0 g     O .rwdata	00000004 alt_max_fd
00096b74 g     F .text	00000104 __unpack_d
000926cc g     F .text	0000013c _fclose_r
00092a04 g     F .text	00000030 fflush
000a1450 g     O .bss	00000004 __malloc_max_sbrked_mem
0008b22c g     F .text	0000013c I2CL_Read
0008ccc8 g     F .text	00000044 __extendsfdf2
00080618 g     F .text	00000050 adv7513_do_hpd_powerdown
00096188 g     F .text	00000054 __adddf3
00094240 g     F .text	00000148 __b2d
000958a8 g     F .text	0000058c __umoddi3
000974dc g     F .text	000000d4 lseek
0009f598 g     O .rwdata	00000004 _global_impure_ptr
000948fc g     F .text	000005fc _realloc_r
000cbaf0 g       *ABS*	00000000 __alt_exception_stack_pointer
000a183c g       *ABS*	00000000 __bss_end
00097174 g     F .text	000000f4 alt_iic_isr_register
0009902c g     F .text	00000108 alt_tick
00080490 g     F .text	00000138 adv7513_do_hpd_powerup
00084c2c g     F .text	0000011c edid_decode_extensions
000952e0 g     F .text	000005c8 __udivdi3
0009d620 g     O .rodata	00000028 __mprec_bigtens
00093920 g     F .text	00000104 __s2b
00096a58 g     F .text	0000011c __floatunsidf
00093fe0 g     F .text	00000058 __mcmp
0009f5a8 g     O .rwdata	00000004 __ctype_ptr
0008d8fc g     F .text	00000018 __fp_lock_all
00097128 g     F .text	0000004c alt_ic_irq_enabled
0008aa5c g     F .text	000000dc I2C_Write
000a14ac g     O .bss	00000100 edid
00098f94 g     F .text	00000098 alt_alarm_stop
000a1468 g     O .bss	00000004 alt_irq_active
00080118 g     F .exceptions	000000d0 alt_irq_handler
0009e204 g     O .rwdata	00000028 alt_dev_null
0008d180 g     F .text	000000c8 __unpack_f
0008ad98 g     F .text	00000088 i2c_start
000989ac g     F .text	00000044 alt_dcache_flush_all
00093a24 g     F .text	00000068 __hi0bits
00096984 g     F .text	000000d4 __fixdfsi
0009f5d4 g       *ABS*	00000000 __ram_rwdata_end
0009f5b8 g     O .rwdata	00000008 alt_dev_list
000979c8 g     F .text	000000f0 write
000946e4 g     F .text	000000bc _putc_r
0009d75c g       *ABS*	00000000 __ram_rodata_end
00096ee8 g     F .text	000000b0 fstat
0008d46c g     F .text	00000044 __lshrdi3
00093d58 g     F .text	0000012c __pow5mult
000a1464 g     O .bss	00000004 __nlocale_changed
0008cf40 g     F .text	00000008 __umodsi3
000a183c g       *ABS*	00000000 end
0008d054 g     F .text	0000012c __pack_f
00097d04 g     F .text	000000c4 altera_avalon_jtag_uart_init
00099798 g       *ABS*	00000000 __CTOR_LIST__
000caaf0 g       *ABS*	00000000 __alt_stack_pointer
00098688 g     F .text	0000008c alt_avalon_timer_sc_init
0008cfa8 g     F .text	000000ac __clzsi2
000983e8 g     F .text	00000228 altera_avalon_jtag_uart_write
0008d8ec g     F .text	00000004 __sfp_lock_acquire
0008e210 g     F .text	000000f8 memchr
0008ee48 g     F .text	00001df8 ___vfprintf_internal_r
00092b70 g     F .text	000002d0 _free_r
00080878 g     F .text	000000c4 adv7513_regmap_dump
000995bc g     F .text	000001a0 __call_exitprocs
000a1460 g     O .bss	00000004 __mlocale_changed
0009f5a0 g     O .rwdata	00000004 __malloc_sbrk_base
000801e8 g     F .text	00000054 _start
000a147c g     O .bss	00000004 _alt_tick_rate
00093e84 g     F .text	0000015c __lshift
000a1480 g     O .bss	00000004 _alt_nticks
000976c0 g     F .text	000000f4 read
00097b2c g     F .text	00000064 alt_sys_init
0009948c g     F .text	00000130 __register_exitproc
000833e0 g     F .text	0000184c edid_print_cea
0008a614 g     F .text	0000008c reg_read
00093b78 g     F .text	000001e0 __multiply
00098070 g     F .text	00000068 altera_avalon_jtag_uart_close
0009d75c g       *ABS*	00000000 __ram_rwdata_start
00099798 g       *ABS*	00000000 __ram_rodata_start
0008eab4 g     F .text	000000b8 strncpy
000a1484 g     O .bss	00000028 __malloc_current_mallinfo
00094388 g     F .text	00000144 __d2b
00097b90 g     F .text	00000064 altera_avalon_jtag_uart_read_fd
0008eb6c g     F .text	00000284 _strtoul_r
00099300 g     F .text	000000b4 alt_get_fd
00098854 g     F .text	00000158 alt_busy_sleep
00096c78 g     F .text	000000d0 __fpcmp_parts_d
00090e44 g     F .text	00000064 _close_r
0008e308 g     F .text	0000007c memcmp
00097c58 g     F .text	00000054 altera_avalon_jtag_uart_close_fd
000a183c g       *ABS*	00000000 __alt_stack_base
00097cac g     F .text	00000058 altera_avalon_jtag_uart_ioctl_fd
00090cd0 g     F .text	00000174 __swsetup_r
00096520 g     F .text	000001b4 __divdf3
0008d7f0 g     F .text	000000fc __sfp
000945e4 g     F .text	0000007c __copybits
0009ddf0 g     O .rwdata	00000408 __malloc_av_
0008d8f8 g     F .text	00000004 __sinit_lock_release
0008ae20 g     F .text	00000074 i2c_stop
0009623c g     F .text	000002e4 __muldf3
0008e8e8 g     F .text	00000054 __sread
000806d8 g     F .text	000000cc adv7513_mode_state
0009d1ac g     O .rodata	00000010 __thenan_sf
000991e8 g     F .text	00000118 alt_find_file
00098a44 g     F .text	000000a4 alt_dev_llist_insert
0009762c g     F .text	00000020 __malloc_lock
00097814 g     F .text	0000012c sbrk
0009281c g     F .text	000001e8 _fflush_r
00095158 g     F .text	000000bc _calloc_r
000a144c g       *ABS*	00000000 __bss_start
0008e47c g     F .text	000000dc memset
0008bed8 g     F .text	0000088c main
000a1474 g     O .bss	00000004 alt_envp
000a144c g     O .bss	00000004 __malloc_max_total_mem
00097bf4 g     F .text	00000064 altera_avalon_jtag_uart_write_fd
0008afc4 g     F .text	00000154 i2c_read
0009513c g     F .text	0000001c __swbuf
0008ea20 g     F .text	00000008 __sclose
000caaf0 g       *ABS*	00000000 __alt_heap_limit
00092808 g     F .text	00000014 fclose
000a16ac g     O .bss	00000190 _atexit0
000910b0 g     F .text	0000161c _dtoa_r
0008da8c g     F .text	00000784 _malloc_r
0009f5c4 g     O .rwdata	00000004 alt_errno
0008a730 g     F .text	00000128 reg_update_bits
0008d92c g     F .text	000000a8 _fwalk
000a183c g       *ABS*	00000000 __alt_stack_limit
0008d4f4 g     F .text	0000013c _fgets_r
000947a0 g     F .text	000000f0 putc
000cb2f0 g       *ABS*	00000000 __alt_exception_stack_limit
0008ce8c g     F .text	00000050 __divsi3
0009d71c g     O .rodata	00000014 __thenan_df
00092a34 g     F .text	0000013c _malloc_trim_r
00099798 g       *ABS*	00000000 __CTOR_END__
0008c9fc g     F .text	00000190 __mulsf3
0008a958 g     F .text	00000104 reg_clear_bits
00094f5c g     F .text	000000a4 strcmp
00099798 g       *ABS*	00000000 __flash_rodata_start
00099798 g       *ABS*	00000000 __DTOR_LIST__
00096730 g     F .text	0000005c __nedf2
00097af4 g     F .text	00000038 alt_irq_init
000977b4 g     F .text	00000060 alt_release_fd
0009d1bc g     O .rodata	00000100 __clz_tab
000a145c g     O .bss	00000004 _PathLocale
00099440 g     F .text	00000014 atexit
00090c64 g     F .text	0000006c _write_r
000933d8 g     F .text	0000001c setlocale
0009f59c g     O .rwdata	00000004 _impure_ptr
000a146c g     O .bss	00000004 alt_argc
00098b48 g     F .text	00000060 _do_dtors
000818e0 g     F .text	0000004c adv7513_chip_init_3d
0008b368 g     F .text	0000018c I2CL_MultipleRead
0008e698 g     F .text	000001ec __srefill_r
00080020 g       .exceptions	00000000 alt_irq_entry
000941e0 g     F .text	00000060 __ulp
00094ef8 g     F .text	00000038 __isinfd
0008d914 g     F .text	00000018 __fp_unlock_all
0009f5b0 g     O .rwdata	00000008 alt_fs_list
00080020 g       *ABS*	00000000 __ram_exceptions_start
000933f4 g     F .text	0000000c localeconv
00080000 g       *ABS*	00000000 __alt_mem_onchip_memory2
00096f98 g     F .text	00000054 alt_ic_isr_register
0009f58c g     O .rwdata	00000004 alt_stack_limit_value
00084d48 g     F .text	00004168 edid_decode_v14
0009f5d4 g       *ABS*	00000000 _edata
000a183c g       *ABS*	00000000 _end
0008bc0c g     F .text	00000220 adv7513_int_setup
000801e8 g       *ABS*	00000000 __ram_exceptions_end
000980d8 g     F .text	000000f4 altera_avalon_jtag_uart_ioctl
00097088 g     F .text	000000a0 alt_ic_irq_disable
0008a858 g     F .text	00000100 reg_or_bits
0008e93c g     F .text	00000088 __swrite
0009f5a4 g     O .rwdata	00000004 __malloc_trim_threshold
00099134 g     F .text	00000020 altera_nios2_qsys_irq_init
00099454 g     F .text	00000038 exit
0008d9d4 g     F .text	000000b8 _fwalk_reent
0008cd0c g     F .text	000000d4 __floatunsisf
00094038 g     F .text	000001a8 __mdiff
0008a6a0 g     F .text	00000090 reg_write
0008cedc g     F .text	0000005c __modsi3
000caaf0 g       *ABS*	00000000 __alt_data_end
000805c8 g     F .text	00000050 adv7513_kick_up
00080020 g     F .exceptions	00000000 alt_exception
0008d8f0 g     F .text	00000004 __sfp_lock_release
0009d326 g     O .rodata	00000101 _ctype_
0009975c g     F .text	0000003c _exit
00094f30 g     F .text	0000002c __isnand
00098714 g     F .text	00000140 alt_alarm_start
0008cf48 g     F .text	00000060 __muldi3
0009346c g     F .text	000001a8 __smakebuf_r
0008ea28 g     F .text	0000008c strlen
00098e3c g     F .text	00000158 open
000967f0 g     F .text	00000064 __gedf2
00081b2c g     F .text	000018b4 edid_decode_cea
00081894 g     F .text	0000004c adv7513_chip_init
00088eb0 g     F .text	00001764 edid_print_v14
00098ba8 g     F .text	00000034 alt_icache_flush_all
00096fec g     F .text	0000009c alt_ic_irq_enable
00090c40 g     F .text	00000024 __vfprintf_internal
000961dc g     F .text	00000060 __subdf3
00093a8c g     F .text	000000b0 __lo0bits
0009f5cc g     O .rwdata	00000008 alt_alarm_list
00098ae8 g     F .text	00000060 _do_ctors
0008b118 g     F .text	00000114 I2CL_Write
00096d9c g     F .text	000000cc close
0008c958 g     F .text	0000004c __addsf3
00097404 g     F .text	00000084 alt_load
0008d248 g     F .text	00000224 __pack_d
00000000  w      *UND*	00000000 free
0008d8f4 g     F .text	00000004 __sinit_lock_acquire
0009380c g     F .text	00000114 __multadd
000937e4 g     F .text	00000028 _Bfree



Disassembly of section .entry:

00080000 <__reset>:
#if NIOS2_ICACHE_SIZE > 0 && defined(ALT_ALLOW_CODE_AT_RESET) && !defined(ALT_SIM_OPTIMIZE)
    /* Assume the instruction cache size is always a power of two. */
#if NIOS2_ICACHE_SIZE > 0x8000
    movhi r2, %hi(NIOS2_ICACHE_SIZE)
#else
    movui r2, NIOS2_ICACHE_SIZE
   80000:	00840014 	movui	r2,4096
#endif

0:
    initi r2
   80004:	1001483a 	initi	r2
    addi r2, r2, -NIOS2_ICACHE_LINE_SIZE
   80008:	10bff804 	addi	r2,r2,-32
    bgt r2, zero, 0b
   8000c:	00bffd16 	blt	zero,r2,80004 <__reset+0x4>
 * Jump to the _start entry point in the .text section if reset code
 * is allowed or if optimizing for RTL simulation.
 */
#if defined(ALT_ALLOW_CODE_AT_RESET) || defined(ALT_SIM_OPTIMIZE)
    /* Jump to the _start entry point in the .text section. */
    movhi r1, %hi(_start)
   80010:	00400234 	movhi	at,8
    ori r1, r1, %lo(_start)
   80014:	08407a14 	ori	at,at,488
    jmp r1
   80018:	0800683a 	jmp	at
   8001c:	00000000 	call	0 <__alt_mem_onchip_memory2-0x80000>

Disassembly of section .exceptions:

00080020 <alt_exception>:
        /* 
         * When runtime stack checking is enabled, the et register
         * contains the stack limit. Save this in memory before
         * overwriting the et register.
         */
        stw   et, %gprel(alt_exception_old_stack_limit)(gp)
   80020:	d627bb15 	stw	et,-24852(gp)

        /* 
         * Switch to the exception stack and save the current stack pointer
         * in memory. Uses the et register as a scratch register.
         */
        movhi et, %hi(__alt_exception_stack_pointer - 80)
   80024:	06000334 	movhi	et,12
        ori   et, et, %lo(__alt_exception_stack_pointer - 80) 
   80028:	c62ea814 	ori	et,et,47776
        stw   sp, 76(et)
   8002c:	c6c01315 	stw	sp,76(et)
        mov   sp, et
   80030:	c037883a 	mov	sp,et

#ifdef ALT_STACK_CHECK
        /*
         * Restore the stack limit from memory to the et register.
         */
        movhi et, %hi(__alt_exception_stack_limit)
   80034:	06000334 	movhi	et,12
        ori   et, et, %lo(__alt_exception_stack_limit) 
   80038:	c62cbc14 	ori	et,et,45808
        stw   et, %gprel(alt_stack_limit_value)(gp)
   8003c:	d6200015 	stw	et,-32768(gp)
         * documentation for details).
         *
         * Leave a gap in the stack frame at 4(sp) for the muldiv handler to
         * store zero into.
         */
        stw   ra,  0(sp)
   80040:	dfc00015 	stw	ra,0(sp)
        stw   r1,   8(sp)
   80044:	d8400215 	stw	at,8(sp)
        stw   r2,  12(sp)
   80048:	d8800315 	stw	r2,12(sp)
        stw   r3,  16(sp)
   8004c:	d8c00415 	stw	r3,16(sp)
        stw   r4,  20(sp)
   80050:	d9000515 	stw	r4,20(sp)
        stw   r5,  24(sp)
   80054:	d9400615 	stw	r5,24(sp)
        stw   r6,  28(sp)
   80058:	d9800715 	stw	r6,28(sp)
        stw   r7,  32(sp)
   8005c:	d9c00815 	stw	r7,32(sp)
        rdctl r5, estatus   /* Read early to avoid usage stall */
   80060:	000b307a 	rdctl	r5,estatus
        stw   r8,  36(sp)
   80064:	da000915 	stw	r8,36(sp)
        stw   r9,  40(sp)
   80068:	da400a15 	stw	r9,40(sp)
        stw   r10, 44(sp)
   8006c:	da800b15 	stw	r10,44(sp)
        stw   r11, 48(sp)
   80070:	dac00c15 	stw	r11,48(sp)
        stw   r12, 52(sp)
   80074:	db000d15 	stw	r12,52(sp)
        stw   r13, 56(sp)
   80078:	db400e15 	stw	r13,56(sp)
        stw   r14, 60(sp)
   8007c:	db800f15 	stw	r14,60(sp)
        stw   r15, 64(sp)
   80080:	dbc01015 	stw	r15,64(sp)
        /*
         * ea-4 contains the address of the instruction being executed
         * when the exception occured. For interrupt exceptions, we will
         * will be re-issue the isntruction. Store it in 72(sp)
         */
        stw   r5,  68(sp)  /* estatus */
   80084:	d9401115 	stw	r5,68(sp)
        addi  r15, ea, -4  /* instruction that caused exception */
   80088:	ebffff04 	addi	r15,ea,-4
        stw   r15,  72(sp)
   8008c:	dbc01215 	stw	r15,72(sp)
#else
        /*
         * Test to see if the exception was a software exception or caused 
         * by an external interrupt, and vector accordingly.
         */
        rdctl r4, ipending
   80090:	0009313a 	rdctl	r4,ipending
        andi  r2, r5, 1
   80094:	2880004c 	andi	r2,r5,1
        beq   r2, zero, .Lnot_irq
   80098:	10000326 	beq	r2,zero,800a8 <alt_exception+0x88>
        beq   r4, zero, .Lnot_irq
   8009c:	20000226 	beq	r4,zero,800a8 <alt_exception+0x88>
        /*
         * Now that all necessary registers have been preserved, call 
         * alt_irq_handler() to process the interrupts.
         */

        call alt_irq_handler
   800a0:	00801180 	call	80118 <alt_irq_handler>

        .section .exceptions.irqreturn, "xa"

        br    .Lexception_exit
   800a4:	00000306 	br	800b4 <alt_exception_unknown+0x4>
         * upon completion, so we write ea (address of instruction *after*
         * the one where the exception occured) into 72(sp). The actual
         * instruction that caused the exception is written in r2, which these
         * handlers will utilize.
         */
        stw   ea,  72(sp)  /* Don't re-issue */
   800a8:	df401215 	stw	ea,72(sp)
        ldw   r2, -4(ea)   /* Instruction that caused exception */
   800ac:	e8bfff17 	ldw	r2,-4(ea)

000800b0 <alt_exception_unknown>:
#ifdef NIOS2_HAS_DEBUG_STUB
       /*
        *  Either tell the user now (if there is a debugger attached) or go into
        *  the debug monitor which will loop until a debugger is attached.
        */
        break
   800b0:	003da03a 	break	0
        /* 
         * Restore the saved registers, so that all general purpose registers 
         * have been restored to their state at the time the interrupt occured.
         */

        ldw   r5,  68(sp)
   800b4:	d9401117 	ldw	r5,68(sp)
        ldw   ea,  72(sp)  /* This becomes the PC once eret is executed */
   800b8:	df401217 	ldw	ea,72(sp)
        ldw   ra,   0(sp)
   800bc:	dfc00017 	ldw	ra,0(sp)

        wrctl estatus, r5
   800c0:	2801707a 	wrctl	estatus,r5

        ldw   r1,   8(sp)
   800c4:	d8400217 	ldw	at,8(sp)
        ldw   r2,  12(sp)
   800c8:	d8800317 	ldw	r2,12(sp)
        ldw   r3,  16(sp)
   800cc:	d8c00417 	ldw	r3,16(sp)
        ldw   r4,  20(sp)
   800d0:	d9000517 	ldw	r4,20(sp)
        ldw   r5,  24(sp)
   800d4:	d9400617 	ldw	r5,24(sp)
        ldw   r6,  28(sp)
   800d8:	d9800717 	ldw	r6,28(sp)
        ldw   r7,  32(sp)
   800dc:	d9c00817 	ldw	r7,32(sp)

#if defined(ALT_EXCEPTION_STACK) && defined(ALT_STACK_CHECK)
        ldw   et, %gprel(alt_exception_old_stack_limit)(gp)
   800e0:	d627bb17 	ldw	et,-24852(gp)
#endif

        ldw   r8,  36(sp)
   800e4:	da000917 	ldw	r8,36(sp)
        ldw   r9,  40(sp)
   800e8:	da400a17 	ldw	r9,40(sp)
        ldw   r10, 44(sp)
   800ec:	da800b17 	ldw	r10,44(sp)
        ldw   r11, 48(sp)
   800f0:	dac00c17 	ldw	r11,48(sp)
        ldw   r12, 52(sp)
   800f4:	db000d17 	ldw	r12,52(sp)
        ldw   r13, 56(sp)
   800f8:	db400e17 	ldw	r13,56(sp)
        ldw   r14, 60(sp)
   800fc:	db800f17 	ldw	r14,60(sp)
        ldw   r15, 64(sp)
   80100:	dbc01017 	ldw	r15,64(sp)

#ifdef ALT_EXCEPTION_STACK
#ifdef ALT_STACK_CHECK
        stw   et, %gprel(alt_stack_limit_value)(gp)
   80104:	d6200015 	stw	et,-32768(gp)
        stw   zero, %gprel(alt_exception_old_stack_limit)(gp)
   80108:	d027bb15 	stw	zero,-24852(gp)
#endif /* ALT_STACK_CHECK */
        ldw   sp,  76(sp)
   8010c:	dec01317 	ldw	sp,76(sp)

        /*
         * Return to the interrupted instruction.
         */

        eret
   80110:	ef80083a 	eret

#ifdef ALT_STACK_CHECK
.Lstack_overflow:
        break 3
   80114:	003da0fa 	break	3

00080118 <alt_irq_handler>:
 * instruction is present if the macro ALT_CI_INTERRUPT_VECTOR defined.
 */

void alt_irq_handler (void) __attribute__ ((section (".exceptions")));
void alt_irq_handler (void)
{
   80118:	defff904 	addi	sp,sp,-28
   8011c:	dfc00615 	stw	ra,24(sp)
   80120:	df000515 	stw	fp,20(sp)
   80124:	df000504 	addi	fp,sp,20
   80128:	d83bb615 	stw	zero,-4392(sp)
  
  /*
   * Notify the operating system that we are at interrupt level.
   */ 
  
  ALT_OS_INT_ENTER();
   8012c:	0001883a 	nop
#ifndef NIOS2_EIC_PRESENT
static ALT_INLINE alt_u32 ALT_ALWAYS_INLINE alt_irq_pending (void)
{
  alt_u32 active;

  NIOS2_READ_IPENDING (active);
   80130:	0005313a 	rdctl	r2,ipending
   80134:	e0bffe15 	stw	r2,-8(fp)

  return active;
   80138:	e0bffe17 	ldw	r2,-8(fp)
   * Consider the case where the high priority interupt is asserted during
   * the interrupt entry sequence for a lower priority interrupt to see why
   * this is the case.
   */

  active = alt_irq_pending ();
   8013c:	e0bffb15 	stw	r2,-20(fp)

  do
  {
    i = 0;
   80140:	e03ffd15 	stw	zero,-12(fp)
    mask = 1;
   80144:	00800044 	movi	r2,1
   80148:	e0bffc15 	stw	r2,-16(fp)
     * called to clear the interrupt condition.
     */

    do
    {
      if (active & mask)
   8014c:	e0fffb17 	ldw	r3,-20(fp)
   80150:	e0bffc17 	ldw	r2,-16(fp)
   80154:	1884703a 	and	r2,r3,r2
   80158:	10001726 	beq	r2,zero,801b8 <alt_irq_handler+0xa0>
      { 
#ifdef ALT_ENHANCED_INTERRUPT_API_PRESENT
        alt_irq[i].handler(alt_irq[i].context); 
   8015c:	00c002b4 	movhi	r3,10
   80160:	18c56b04 	addi	r3,r3,5548
   80164:	e0bffd17 	ldw	r2,-12(fp)
   80168:	100490fa 	slli	r2,r2,3
   8016c:	1885883a 	add	r2,r3,r2
   80170:	10c00017 	ldw	r3,0(r2)
   80174:	010002b4 	movhi	r4,10
   80178:	21056b04 	addi	r4,r4,5548
   8017c:	e0bffd17 	ldw	r2,-12(fp)
   80180:	100490fa 	slli	r2,r2,3
   80184:	2085883a 	add	r2,r4,r2
   80188:	10800104 	addi	r2,r2,4
   8018c:	10800017 	ldw	r2,0(r2)
   80190:	1009883a 	mov	r4,r2
   80194:	183ee83a 	callr	r3
#else
        alt_irq[i].handler(alt_irq[i].context, i); 
#endif
        break;
   80198:	0001883a 	nop
#ifndef NIOS2_EIC_PRESENT
static ALT_INLINE alt_u32 ALT_ALWAYS_INLINE alt_irq_pending (void)
{
  alt_u32 active;

  NIOS2_READ_IPENDING (active);
   8019c:	0005313a 	rdctl	r2,ipending
   801a0:	e0bfff15 	stw	r2,-4(fp)

  return active;
   801a4:	e0bfff17 	ldw	r2,-4(fp)
      mask <<= 1;
      i++;

    } while (1);

    active = alt_irq_pending ();
   801a8:	e0bffb15 	stw	r2,-20(fp)
    
  } while (active);
   801ac:	e0bffb17 	ldw	r2,-20(fp)
   801b0:	103fe31e 	bne	r2,zero,80140 <alt_irq_handler+0x28>

  /*
   * Notify the operating system that interrupt processing is complete.
   */ 

  ALT_OS_INT_EXIT();
   801b4:	00000706 	br	801d4 <alt_irq_handler+0xbc>
#else
        alt_irq[i].handler(alt_irq[i].context, i); 
#endif
        break;
      }
      mask <<= 1;
   801b8:	e0bffc17 	ldw	r2,-16(fp)
   801bc:	1085883a 	add	r2,r2,r2
   801c0:	e0bffc15 	stw	r2,-16(fp)
      i++;
   801c4:	e0bffd17 	ldw	r2,-12(fp)
   801c8:	10800044 	addi	r2,r2,1
   801cc:	e0bffd15 	stw	r2,-12(fp)

    } while (1);
   801d0:	003fde06 	br	8014c <alt_irq_handler+0x34>
  /*
   * Notify the operating system that interrupt processing is complete.
   */ 

  ALT_OS_INT_EXIT();
}
   801d4:	e037883a 	mov	sp,fp
   801d8:	dfc00117 	ldw	ra,4(sp)
   801dc:	df000017 	ldw	fp,0(sp)
   801e0:	dec00204 	addi	sp,sp,8
   801e4:	f800283a 	ret

Disassembly of section .text:

000801e8 <_start>:

    /* Assume the data cache size is always a power of two. */
#if NIOS2_DCACHE_SIZE > 0x8000
    movhi r2, %hi(NIOS2_DCACHE_SIZE)
#else
    movui r2, NIOS2_DCACHE_SIZE
   801e8:	00820014 	movui	r2,2048
#endif

0:
    initd 0(r2)
   801ec:	10000033 	initd	0(r2)
#ifdef NIOS2_ECC_PRESENT
    addi r2, r2, -4
#else
    addi r2, r2, -NIOS2_DCACHE_LINE_SIZE
   801f0:	10bff804 	addi	r2,r2,-32
#endif
    bgt r2, zero, 0b
   801f4:	00bffd16 	blt	zero,r2,801ec <_start+0x4>

    /*
     * Now that the caches are initialized, set up the stack pointer and global pointer.
     * The values provided by the linker are assumed to be correctly aligned.
     */
    movhi sp, %hi(__alt_stack_pointer)
   801f8:	06c00334 	movhi	sp,12
    ori sp, sp, %lo(__alt_stack_pointer)
   801fc:	deeabc14 	ori	sp,sp,43760
    movhi gp, %hi(_gp)
   80200:	068002b4 	movhi	gp,10
    ori gp, gp, %lo(_gp)
   80204:	d69d6314 	ori	gp,gp,30092
 */
#ifndef ALT_SIM_OPTIMIZE
    /* Log that the BSS is about to be cleared. */
    ALT_LOG_PUTS(alt_log_msg_bss)

    movhi r2, %hi(__bss_start)
   80208:	008002b4 	movhi	r2,10
    ori r2, r2, %lo(__bss_start)
   8020c:	10851314 	ori	r2,r2,5196

    movhi r3, %hi(__bss_end)
   80210:	00c002b4 	movhi	r3,10
    ori r3, r3, %lo(__bss_end)
   80214:	18c60f14 	ori	r3,r3,6204

    beq r2, r3, 1f
   80218:	10c00326 	beq	r2,r3,80228 <_start+0x40>

0:
    stw zero, (r2)
   8021c:	10000015 	stw	zero,0(r2)
    addi r2, r2, 4
   80220:	10800104 	addi	r2,r2,4
    bltu r2, r3, 0b
   80224:	10fffd36 	bltu	r2,r3,8021c <_start+0x34>
     * If the user has selected stack checking then we need to set up a safe
     * value in the stack limit register so that the relocation functions
     * don't think the stack has overflowed (the contents of the rwdata
     * section aren't defined until alt_load() has been called).
     */
    mov   et, zero
   80228:	0031883a 	mov	et,zero
#endif

    call alt_load
   8022c:	00974040 	call	97404 <alt_load>
    /*
     * Set up the stack limit (if required).  The linker has set up the
     * copy of the variable which is in memory.
     */

    ldw   et, %gprel(alt_stack_limit_value)(gp)
   80230:	d6200017 	ldw	et,-32768(gp)

    /* Log that alt_main is about to be called. */
    ALT_LOG_PUTS(alt_log_msg_alt_main)

    /* Call the C entry point. It should never return. */
    call alt_main
   80234:	00975b00 	call	975b0 <alt_main>

00080238 <alt_after_alt_main>:

    /* Wait in infinite loop in case alt_main does return. */
alt_after_alt_main:
    br alt_after_alt_main
   80238:	003fff06 	br	80238 <alt_after_alt_main>

0008023c <adv7513_chip_identify>:
	{ 0x55, 0x02 },
};
#endif

int adv7513_chip_identify(struct hdmi_encoder *ec)
{
   8023c:	defffb04 	addi	sp,sp,-20
   80240:	dfc00415 	stw	ra,16(sp)
   80244:	df000315 	stw	fp,12(sp)
   80248:	df000304 	addi	fp,sp,12
   8024c:	e13fff15 	stw	r4,-4(fp)
   80250:	d83bb615 	stw	zero,-4392(sp)
	bool r = 0;
   80254:	e03ffe15 	stw	zero,-8(fp)

	r = I2C_Read(I2C_SCL_BASE, I2C_SDA_BASE, ec->slave_addr, ADV7513_REG_CHIP_REVISION, &ec->chip_rev[0]);
   80258:	e0bfff17 	ldw	r2,-4(fp)
   8025c:	10800017 	ldw	r2,0(r2)
   80260:	10803fcc 	andi	r2,r2,255
   80264:	1080201c 	xori	r2,r2,128
   80268:	10bfe004 	addi	r2,r2,-128
   8026c:	e0ffff17 	ldw	r3,-4(fp)
   80270:	18c00804 	addi	r3,r3,32
   80274:	d8c00015 	stw	r3,0(sp)
   80278:	01000434 	movhi	r4,16
   8027c:	21041004 	addi	r4,r4,4160
   80280:	01400434 	movhi	r5,16
   80284:	29441404 	addi	r5,r5,4176
   80288:	100d883a 	mov	r6,r2
   8028c:	000f883a 	mov	r7,zero
   80290:	008ab380 	call	8ab38 <I2C_Read>
   80294:	e0bffe15 	stw	r2,-8(fp)
	if (!r)
   80298:	e0bffe17 	ldw	r2,-8(fp)
   8029c:	1000021e 	bne	r2,zero,802a8 <adv7513_chip_identify+0x6c>
		return -1;
   802a0:	00bfffc4 	movi	r2,-1
   802a4:	00002906 	br	8034c <adv7513_chip_identify+0x110>

	r = I2C_Read(I2C_SCL_BASE, I2C_SDA_BASE, ec->slave_addr, ADV7513_REG_CHIP_ID_LOW, &ec->chip_id[0]);
   802a8:	e0bfff17 	ldw	r2,-4(fp)
   802ac:	10800017 	ldw	r2,0(r2)
   802b0:	10803fcc 	andi	r2,r2,255
   802b4:	1080201c 	xori	r2,r2,128
   802b8:	10bfe004 	addi	r2,r2,-128
   802bc:	e0ffff17 	ldw	r3,-4(fp)
   802c0:	18c00704 	addi	r3,r3,28
   802c4:	d8c00015 	stw	r3,0(sp)
   802c8:	01000434 	movhi	r4,16
   802cc:	21041004 	addi	r4,r4,4160
   802d0:	01400434 	movhi	r5,16
   802d4:	29441404 	addi	r5,r5,4176
   802d8:	100d883a 	mov	r6,r2
   802dc:	01c03d84 	movi	r7,246
   802e0:	008ab380 	call	8ab38 <I2C_Read>
   802e4:	e0bffe15 	stw	r2,-8(fp)
	if (!r)
   802e8:	e0bffe17 	ldw	r2,-8(fp)
   802ec:	1000021e 	bne	r2,zero,802f8 <adv7513_chip_identify+0xbc>
		return -2;
   802f0:	00bfff84 	movi	r2,-2
   802f4:	00001506 	br	8034c <adv7513_chip_identify+0x110>

	r = I2C_Read(I2C_SCL_BASE, I2C_SDA_BASE, ec->slave_addr, ADV7513_REG_CHIP_ID_HIGH, &ec->chip_id[1]);
   802f8:	e0bfff17 	ldw	r2,-4(fp)
   802fc:	10800017 	ldw	r2,0(r2)
   80300:	10803fcc 	andi	r2,r2,255
   80304:	1080201c 	xori	r2,r2,128
   80308:	10bfe004 	addi	r2,r2,-128
   8030c:	e0ffff17 	ldw	r3,-4(fp)
   80310:	18c00744 	addi	r3,r3,29
   80314:	d8c00015 	stw	r3,0(sp)
   80318:	01000434 	movhi	r4,16
   8031c:	21041004 	addi	r4,r4,4160
   80320:	01400434 	movhi	r5,16
   80324:	29441404 	addi	r5,r5,4176
   80328:	100d883a 	mov	r6,r2
   8032c:	01c03d44 	movi	r7,245
   80330:	008ab380 	call	8ab38 <I2C_Read>
   80334:	e0bffe15 	stw	r2,-8(fp)
	if (!r)
   80338:	e0bffe17 	ldw	r2,-8(fp)
   8033c:	1000021e 	bne	r2,zero,80348 <adv7513_chip_identify+0x10c>
		return -3;
   80340:	00bfff44 	movi	r2,-3
   80344:	00000106 	br	8034c <adv7513_chip_identify+0x110>

	return 0;
   80348:	0005883a 	mov	r2,zero
}
   8034c:	e037883a 	mov	sp,fp
   80350:	dfc00117 	ldw	ra,4(sp)
   80354:	df000017 	ldw	fp,0(sp)
   80358:	dec00204 	addi	sp,sp,8
   8035c:	f800283a 	ret

00080360 <adv7513_hpd_probe>:

int adv7513_hpd_probe(struct hdmi_encoder *ec)
{
   80360:	defffb04 	addi	sp,sp,-20
   80364:	dfc00415 	stw	ra,16(sp)
   80368:	df000315 	stw	fp,12(sp)
   8036c:	df000304 	addi	fp,sp,12
   80370:	e13fff15 	stw	r4,-4(fp)
   80374:	d83bb615 	stw	zero,-4392(sp)
	bool r = 0;
   80378:	e03ffd15 	stw	zero,-12(fp)
	alt_u8 regv = 0;
   8037c:	e03ffe05 	stb	zero,-8(fp)

	ec->hpd_prev = ec->hpd_latest;
   80380:	e0bfff17 	ldw	r2,-4(fp)
   80384:	10c00317 	ldw	r3,12(r2)
   80388:	e0bfff17 	ldw	r2,-4(fp)
   8038c:	10c00215 	stw	r3,8(r2)

	r = reg_read(ec, ADV7513_REG_STATUS, &regv);
   80390:	e0bffe04 	addi	r2,fp,-8
   80394:	e13fff17 	ldw	r4,-4(fp)
   80398:	01401084 	movi	r5,66
   8039c:	100d883a 	mov	r6,r2
   803a0:	008a6140 	call	8a614 <reg_read>
   803a4:	e0bffd15 	stw	r2,-12(fp)
	if (r != 0)
   803a8:	e0bffd17 	ldw	r2,-12(fp)
   803ac:	10000226 	beq	r2,zero,803b8 <adv7513_hpd_probe+0x58>
		return -1;
   803b0:	00bfffc4 	movi	r2,-1
   803b4:	00003106 	br	8047c <adv7513_hpd_probe+0x11c>

	ec->hpd_latest = regv & ((ADV7513_STATUS_HPD) | (ADV7513_STATUS_MONITOR_SENSE));
   803b8:	e0bffe03 	ldbu	r2,-8(fp)
   803bc:	10803fcc 	andi	r2,r2,255
   803c0:	10c0180c 	andi	r3,r2,96
   803c4:	e0bfff17 	ldw	r2,-4(fp)
   803c8:	10c00315 	stw	r3,12(r2)
	ec->hpd_event = ec->hpd_latest ^ ec->hpd_prev;
   803cc:	e0bfff17 	ldw	r2,-4(fp)
   803d0:	10c00317 	ldw	r3,12(r2)
   803d4:	e0bfff17 	ldw	r2,-4(fp)
   803d8:	10800217 	ldw	r2,8(r2)
   803dc:	1886f03a 	xor	r3,r3,r2
   803e0:	e0bfff17 	ldw	r2,-4(fp)
   803e4:	10c00415 	stw	r3,16(r2)

	ec->hpd = 0;
   803e8:	e0bfff17 	ldw	r2,-4(fp)
   803ec:	10000515 	stw	zero,20(r2)

	if ((ec->hpd_event != 0) && ((ec->hpd_latest & ((ADV7513_STATUS_HPD) | (ADV7513_STATUS_MONITOR_SENSE))) == ((ADV7513_STATUS_HPD) | (ADV7513_STATUS_MONITOR_SENSE)))) {
   803f0:	e0bfff17 	ldw	r2,-4(fp)
   803f4:	10800417 	ldw	r2,16(r2)
   803f8:	10000926 	beq	r2,zero,80420 <adv7513_hpd_probe+0xc0>
   803fc:	e0bfff17 	ldw	r2,-4(fp)
   80400:	10800317 	ldw	r2,12(r2)
   80404:	1080180c 	andi	r2,r2,96
   80408:	10801818 	cmpnei	r2,r2,96
   8040c:	1000041e 	bne	r2,zero,80420 <adv7513_hpd_probe+0xc0>
		// if hot-plug state changed and both HPD and monitor-sense are asserted
		ec->hpd = 1;
   80410:	e0bfff17 	ldw	r2,-4(fp)
   80414:	00c00044 	movi	r3,1
   80418:	10c00515 	stw	r3,20(r2)
   8041c:	00001606 	br	80478 <adv7513_hpd_probe+0x118>
	} else {
		if ((ec->hpd_event & (ADV7513_STATUS_HPD)) && ((ec->hpd_latest & (ADV7513_STATUS_HPD)) == 0)) {
   80420:	e0bfff17 	ldw	r2,-4(fp)
   80424:	10800417 	ldw	r2,16(r2)
   80428:	1080100c 	andi	r2,r2,64
   8042c:	10000726 	beq	r2,zero,8044c <adv7513_hpd_probe+0xec>
   80430:	e0bfff17 	ldw	r2,-4(fp)
   80434:	10800317 	ldw	r2,12(r2)
   80438:	1080100c 	andi	r2,r2,64
   8043c:	1000031e 	bne	r2,zero,8044c <adv7513_hpd_probe+0xec>
			// if HPD state changed and HPD was de-asserted
			ec->hpd = -1;
   80440:	e0bfff17 	ldw	r2,-4(fp)
   80444:	00ffffc4 	movi	r3,-1
   80448:	10c00515 	stw	r3,20(r2)
		}

		if ((ec->hpd_event & (ADV7513_STATUS_MONITOR_SENSE)) && ((ec->hpd_latest & (ADV7513_STATUS_MONITOR_SENSE)) == 0)) {
   8044c:	e0bfff17 	ldw	r2,-4(fp)
   80450:	10800417 	ldw	r2,16(r2)
   80454:	1080080c 	andi	r2,r2,32
   80458:	10000726 	beq	r2,zero,80478 <adv7513_hpd_probe+0x118>
   8045c:	e0bfff17 	ldw	r2,-4(fp)
   80460:	10800317 	ldw	r2,12(r2)
   80464:	1080080c 	andi	r2,r2,32
   80468:	1000031e 	bne	r2,zero,80478 <adv7513_hpd_probe+0x118>
			// if monitor-sense state changed and monitor-sense was de-asserted
			ec->hpd = -1;
   8046c:	e0bfff17 	ldw	r2,-4(fp)
   80470:	00ffffc4 	movi	r3,-1
   80474:	10c00515 	stw	r3,20(r2)
	// 0xd6[7:6] <- (2 << 6) (HPD from HPD only) & 0xc0
	//r = reg_update_bits(ec, 0xd6, 0xc0 ,0x02 << 6);
	//if (r != 0)
	//	return -1;

	return 0;
   80478:	0005883a 	mov	r2,zero
}
   8047c:	e037883a 	mov	sp,fp
   80480:	dfc00117 	ldw	ra,4(sp)
   80484:	df000017 	ldw	fp,0(sp)
   80488:	dec00204 	addi	sp,sp,8
   8048c:	f800283a 	ret

00080490 <adv7513_do_hpd_powerup>:

int adv7513_do_hpd_powerup(struct hdmi_encoder *ec)
{
   80490:	defffd04 	addi	sp,sp,-12
   80494:	dfc00215 	stw	ra,8(sp)
   80498:	df000115 	stw	fp,4(sp)
   8049c:	df000104 	addi	fp,sp,4
   804a0:	e13fff15 	stw	r4,-4(fp)
   804a4:	d83bb615 	stw	zero,-4392(sp)
	//printf("adv7513_do_hpd_powerup()\n");

	// power up the encoder
	if (reg_update_bits(ec, 0x41, 0x40, 0) != 0)
   804a8:	e13fff17 	ldw	r4,-4(fp)
   804ac:	01401044 	movi	r5,65
   804b0:	01801004 	movi	r6,64
   804b4:	000f883a 	mov	r7,zero
   804b8:	008a7300 	call	8a730 <reg_update_bits>
   804bc:	10000226 	beq	r2,zero,804c8 <adv7513_do_hpd_powerup+0x38>
		return -1;
   804c0:	00bfffc4 	movi	r2,-1
   804c4:	00003b06 	br	805b4 <adv7513_do_hpd_powerup+0x124>

	//usleep(150000);

	// table 14 -- fixed registers must be set after power up
	if (reg_write(ec, 0x98, 0x03) != 0)
   804c8:	e13fff17 	ldw	r4,-4(fp)
   804cc:	01402604 	movi	r5,152
   804d0:	018000c4 	movi	r6,3
   804d4:	008a6a00 	call	8a6a0 <reg_write>
   804d8:	10000226 	beq	r2,zero,804e4 <adv7513_do_hpd_powerup+0x54>
		return -1;
   804dc:	00bfffc4 	movi	r2,-1
   804e0:	00003406 	br	805b4 <adv7513_do_hpd_powerup+0x124>
	if (reg_update_bits(ec, 0x9a, 0xe0, 0x7 << 5) != 0)
   804e4:	e13fff17 	ldw	r4,-4(fp)
   804e8:	01402684 	movi	r5,154
   804ec:	01803804 	movi	r6,224
   804f0:	01c03804 	movi	r7,224
   804f4:	008a7300 	call	8a730 <reg_update_bits>
   804f8:	10000226 	beq	r2,zero,80504 <adv7513_do_hpd_powerup+0x74>
		return -1;
   804fc:	00bfffc4 	movi	r2,-1
   80500:	00002c06 	br	805b4 <adv7513_do_hpd_powerup+0x124>
	if (reg_write(ec, 0x9c, 0x30) != 0)
   80504:	e13fff17 	ldw	r4,-4(fp)
   80508:	01402704 	movi	r5,156
   8050c:	01800c04 	movi	r6,48
   80510:	008a6a00 	call	8a6a0 <reg_write>
   80514:	10000226 	beq	r2,zero,80520 <adv7513_do_hpd_powerup+0x90>
		return -1;
   80518:	00bfffc4 	movi	r2,-1
   8051c:	00002506 	br	805b4 <adv7513_do_hpd_powerup+0x124>
	if (reg_update_bits(ec, 0x9d, 0x03, 0x01) != 0)
   80520:	e13fff17 	ldw	r4,-4(fp)
   80524:	01402744 	movi	r5,157
   80528:	018000c4 	movi	r6,3
   8052c:	01c00044 	movi	r7,1
   80530:	008a7300 	call	8a730 <reg_update_bits>
   80534:	10000226 	beq	r2,zero,80540 <adv7513_do_hpd_powerup+0xb0>
		return -1;
   80538:	00bfffc4 	movi	r2,-1
   8053c:	00001d06 	br	805b4 <adv7513_do_hpd_powerup+0x124>
	if (reg_write(ec, 0xa2, 0xa4) != 0)
   80540:	e13fff17 	ldw	r4,-4(fp)
   80544:	01402884 	movi	r5,162
   80548:	01802904 	movi	r6,164
   8054c:	008a6a00 	call	8a6a0 <reg_write>
   80550:	10000226 	beq	r2,zero,8055c <adv7513_do_hpd_powerup+0xcc>
		return -1;
   80554:	00bfffc4 	movi	r2,-1
   80558:	00001606 	br	805b4 <adv7513_do_hpd_powerup+0x124>
	if (reg_write(ec, 0xa3, 0xa4) != 0)
   8055c:	e13fff17 	ldw	r4,-4(fp)
   80560:	014028c4 	movi	r5,163
   80564:	01802904 	movi	r6,164
   80568:	008a6a00 	call	8a6a0 <reg_write>
   8056c:	10000226 	beq	r2,zero,80578 <adv7513_do_hpd_powerup+0xe8>
		return -1;
   80570:	00bfffc4 	movi	r2,-1
   80574:	00000f06 	br	805b4 <adv7513_do_hpd_powerup+0x124>
	if (reg_write(ec, 0xe0, 0xd0) != 0)
   80578:	e13fff17 	ldw	r4,-4(fp)
   8057c:	01403804 	movi	r5,224
   80580:	01803404 	movi	r6,208
   80584:	008a6a00 	call	8a6a0 <reg_write>
   80588:	10000226 	beq	r2,zero,80594 <adv7513_do_hpd_powerup+0x104>
		return -1;
   8058c:	00bfffc4 	movi	r2,-1
   80590:	00000806 	br	805b4 <adv7513_do_hpd_powerup+0x124>
	//if (reg_write(ec, 0xf9, 0x00) != 0)  // set to a non-conflicting i2c address (suggested addr: 0x00)
	//	return -1;

	// clear hpd interrupts
	// 0x96[7:6] <- 0xc0 & 0xc0
	if (reg_write(ec, 0x96, 0xff) != 0)
   80594:	e13fff17 	ldw	r4,-4(fp)
   80598:	01402584 	movi	r5,150
   8059c:	01803fc4 	movi	r6,255
   805a0:	008a6a00 	call	8a6a0 <reg_write>
   805a4:	10000226 	beq	r2,zero,805b0 <adv7513_do_hpd_powerup+0x120>
		return -1;
   805a8:	00bfffc4 	movi	r2,-1
   805ac:	00000106 	br	805b4 <adv7513_do_hpd_powerup+0x124>

	return 0;
   805b0:	0005883a 	mov	r2,zero
}
   805b4:	e037883a 	mov	sp,fp
   805b8:	dfc00117 	ldw	ra,4(sp)
   805bc:	df000017 	ldw	fp,0(sp)
   805c0:	dec00204 	addi	sp,sp,8
   805c4:	f800283a 	ret

000805c8 <adv7513_kick_up>:
// interrupt if the monitor is in sleep mode and the cable is connected before downloading
// the program to the fpga board. It is verified that kick-off the encoder chip facilitates
// the encoder to detect monitor-sense signal at the program initialization process
//
extern int adv7513_kick_up(struct hdmi_encoder *ec)
{
   805c8:	defffd04 	addi	sp,sp,-12
   805cc:	dfc00215 	stw	ra,8(sp)
   805d0:	df000115 	stw	fp,4(sp)
   805d4:	df000104 	addi	fp,sp,4
   805d8:	e13fff15 	stw	r4,-4(fp)
   805dc:	d83bb615 	stw	zero,-4392(sp)
	// power up the encoder
	if (reg_update_bits(ec, 0x41, 0x40, 0) != 0)
   805e0:	e13fff17 	ldw	r4,-4(fp)
   805e4:	01401044 	movi	r5,65
   805e8:	01801004 	movi	r6,64
   805ec:	000f883a 	mov	r7,zero
   805f0:	008a7300 	call	8a730 <reg_update_bits>
   805f4:	10000226 	beq	r2,zero,80600 <adv7513_kick_up+0x38>
		return -1;
   805f8:	00bfffc4 	movi	r2,-1
   805fc:	00000106 	br	80604 <adv7513_kick_up+0x3c>
	return 0;
   80600:	0005883a 	mov	r2,zero
}
   80604:	e037883a 	mov	sp,fp
   80608:	dfc00117 	ldw	ra,4(sp)
   8060c:	df000017 	ldw	fp,0(sp)
   80610:	dec00204 	addi	sp,sp,8
   80614:	f800283a 	ret

00080618 <adv7513_do_hpd_powerdown>:

int adv7513_do_hpd_powerdown(struct hdmi_encoder *ec)
{
   80618:	defffd04 	addi	sp,sp,-12
   8061c:	dfc00215 	stw	ra,8(sp)
   80620:	df000115 	stw	fp,4(sp)
   80624:	df000104 	addi	fp,sp,4
   80628:	e13fff15 	stw	r4,-4(fp)
   8062c:	d83bb615 	stw	zero,-4392(sp)
	// power down the encoder
	if (reg_update_bits(ec, 0x41, 0x40, 0x40) != 0)
   80630:	e13fff17 	ldw	r4,-4(fp)
   80634:	01401044 	movi	r5,65
   80638:	01801004 	movi	r6,64
   8063c:	01c01004 	movi	r7,64
   80640:	008a7300 	call	8a730 <reg_update_bits>
   80644:	10000226 	beq	r2,zero,80650 <adv7513_do_hpd_powerdown+0x38>
		return -1;
   80648:	00bfffc4 	movi	r2,-1
   8064c:	00000106 	br	80654 <adv7513_do_hpd_powerdown+0x3c>

	return 0;
   80650:	0005883a 	mov	r2,zero
}
   80654:	e037883a 	mov	sp,fp
   80658:	dfc00117 	ldw	ra,4(sp)
   8065c:	df000017 	ldw	fp,0(sp)
   80660:	dec00204 	addi	sp,sp,8
   80664:	f800283a 	ret

00080668 <adv7513_power_state>:

int adv7513_power_state(struct hdmi_encoder *ec, int *state)
{
   80668:	defffa04 	addi	sp,sp,-24
   8066c:	dfc00515 	stw	ra,20(sp)
   80670:	df000415 	stw	fp,16(sp)
   80674:	df000404 	addi	fp,sp,16
   80678:	e13ffe15 	stw	r4,-8(fp)
   8067c:	e17fff15 	stw	r5,-4(fp)
   80680:	d83bb615 	stw	zero,-4392(sp)
	bool r = 0;
   80684:	e03ffc15 	stw	zero,-16(fp)
	alt_u8 regv = 0;
   80688:	e03ffd05 	stb	zero,-12(fp)

	r = reg_read(ec, 0x41, &regv);
   8068c:	e0bffd04 	addi	r2,fp,-12
   80690:	e13ffe17 	ldw	r4,-8(fp)
   80694:	01401044 	movi	r5,65
   80698:	100d883a 	mov	r6,r2
   8069c:	008a6140 	call	8a614 <reg_read>
   806a0:	e0bffc15 	stw	r2,-16(fp)
	if (r != 0)
   806a4:	e0bffc17 	ldw	r2,-16(fp)
   806a8:	10000226 	beq	r2,zero,806b4 <adv7513_power_state+0x4c>
		return -1;
   806ac:	00bfffc4 	movi	r2,-1
   806b0:	00000406 	br	806c4 <adv7513_power_state+0x5c>

	if ((regv & 0x40) == 1)
		*state = 0;
	else
		*state = 1;
   806b4:	e0bfff17 	ldw	r2,-4(fp)
   806b8:	00c00044 	movi	r3,1
   806bc:	10c00015 	stw	r3,0(r2)

	return 0;
   806c0:	0005883a 	mov	r2,zero
}
   806c4:	e037883a 	mov	sp,fp
   806c8:	dfc00117 	ldw	ra,4(sp)
   806cc:	df000017 	ldw	fp,0(sp)
   806d0:	dec00204 	addi	sp,sp,8
   806d4:	f800283a 	ret

000806d8 <adv7513_mode_state>:

int adv7513_mode_state(struct hdmi_encoder *ec, int *vic, const char **mode)
{
   806d8:	defff904 	addi	sp,sp,-28
   806dc:	dfc00615 	stw	ra,24(sp)
   806e0:	df000515 	stw	fp,20(sp)
   806e4:	df000504 	addi	fp,sp,20
   806e8:	e13ffd15 	stw	r4,-12(fp)
   806ec:	e17ffe15 	stw	r5,-8(fp)
   806f0:	e1bfff15 	stw	r6,-4(fp)
   806f4:	d83bb615 	stw	zero,-4392(sp)
		"720x480p @239.76/240 Hz (16:9)",
		"720(1440)x480i @239.76/240 Hz (4:3)",
		"720(1440)x480i @239.76/240 Hz (16:9)",
	};

	bool r = 0;
   806f8:	e03ffb15 	stw	zero,-20(fp)
	alt_u8 regv = 0;
   806fc:	e03ffc05 	stb	zero,-16(fp)

	r = reg_read(ec, 0x3d, &regv);
   80700:	e0bffc04 	addi	r2,fp,-16
   80704:	e13ffd17 	ldw	r4,-12(fp)
   80708:	01400f44 	movi	r5,61
   8070c:	100d883a 	mov	r6,r2
   80710:	008a6140 	call	8a614 <reg_read>
   80714:	e0bffb15 	stw	r2,-20(fp)
	if (r != 0)
   80718:	e0bffb17 	ldw	r2,-20(fp)
   8071c:	10000226 	beq	r2,zero,80728 <adv7513_mode_state+0x50>
		return -1;
   80720:	00bfffc4 	movi	r2,-1
   80724:	00001a06 	br	80790 <adv7513_mode_state+0xb8>

	*vic = regv & 0x1f;
   80728:	e0bffc03 	ldbu	r2,-16(fp)
   8072c:	10803fcc 	andi	r2,r2,255
   80730:	10c007cc 	andi	r3,r2,31
   80734:	e0bffe17 	ldw	r2,-8(fp)
   80738:	10c00015 	stw	r3,0(r2)

	if (*vic < 60) {
   8073c:	e0bffe17 	ldw	r2,-8(fp)
   80740:	10800017 	ldw	r2,0(r2)
   80744:	10800f08 	cmpgei	r2,r2,60
   80748:	10000b1e 	bne	r2,zero,80778 <adv7513_mode_state+0xa0>
		*mode = vic_table[*vic];
   8074c:	e0bffe17 	ldw	r2,-8(fp)
   80750:	10800017 	ldw	r2,0(r2)
   80754:	00c002b4 	movhi	r3,10
   80758:	18f5d704 	addi	r3,r3,-10404
   8075c:	1085883a 	add	r2,r2,r2
   80760:	1085883a 	add	r2,r2,r2
   80764:	1885883a 	add	r2,r3,r2
   80768:	10c00017 	ldw	r3,0(r2)
   8076c:	e0bfff17 	ldw	r2,-4(fp)
   80770:	10c00015 	stw	r3,0(r2)
   80774:	00000506 	br	8078c <adv7513_mode_state+0xb4>
	} else {
		*mode = vic_table[0];
   80778:	008002b4 	movhi	r2,10
   8077c:	10b5d704 	addi	r2,r2,-10404
   80780:	10c00017 	ldw	r3,0(r2)
   80784:	e0bfff17 	ldw	r2,-4(fp)
   80788:	10c00015 	stw	r3,0(r2)
	}

	return 0;
   8078c:	0005883a 	mov	r2,zero
}
   80790:	e037883a 	mov	sp,fp
   80794:	dfc00117 	ldw	ra,4(sp)
   80798:	df000017 	ldw	fp,0(sp)
   8079c:	dec00204 	addi	sp,sp,8
   807a0:	f800283a 	ret

000807a4 <adv7513_edid_read>:

int adv7513_edid_read(struct hdmi_encoder *ec, void *edid, int segment)
{
   807a4:	defff704 	addi	sp,sp,-36
   807a8:	dfc00815 	stw	ra,32(sp)
   807ac:	df000715 	stw	fp,28(sp)
   807b0:	df000704 	addi	fp,sp,28
   807b4:	e13ffd15 	stw	r4,-12(fp)
   807b8:	e17ffe15 	stw	r5,-8(fp)
   807bc:	e1bfff15 	stw	r6,-4(fp)
   807c0:	d83bb615 	stw	zero,-4392(sp)
	bool r = 0;
   807c4:	e03ffc15 	stw	zero,-16(fp)
	alt_u8 *regv = (alt_u8 *)edid;
   807c8:	e0bffe17 	ldw	r2,-8(fp)
   807cc:	e0bffa15 	stw	r2,-24(fp)
	int i;

	for (i = 0 + segment * 256; i < (segment + 1) * 256; ++i, ++regv) {
   807d0:	e0bfff17 	ldw	r2,-4(fp)
   807d4:	1004923a 	slli	r2,r2,8
   807d8:	e0bffb15 	stw	r2,-20(fp)
   807dc:	00001b06 	br	8084c <adv7513_edid_read+0xa8>
		r = I2C_Read(I2C_SCL_BASE, I2C_SDA_BASE, ec->edid_addr, i, regv);
   807e0:	e0bffd17 	ldw	r2,-12(fp)
   807e4:	10800117 	ldw	r2,4(r2)
   807e8:	10c03fcc 	andi	r3,r2,255
   807ec:	18c0201c 	xori	r3,r3,128
   807f0:	18ffe004 	addi	r3,r3,-128
   807f4:	e0bffb17 	ldw	r2,-20(fp)
   807f8:	10803fcc 	andi	r2,r2,255
   807fc:	e13ffa17 	ldw	r4,-24(fp)
   80800:	d9000015 	stw	r4,0(sp)
   80804:	01000434 	movhi	r4,16
   80808:	21041004 	addi	r4,r4,4160
   8080c:	01400434 	movhi	r5,16
   80810:	29441404 	addi	r5,r5,4176
   80814:	180d883a 	mov	r6,r3
   80818:	100f883a 	mov	r7,r2
   8081c:	008ab380 	call	8ab38 <I2C_Read>
   80820:	e0bffc15 	stw	r2,-16(fp)
		if (!r)
   80824:	e0bffc17 	ldw	r2,-16(fp)
   80828:	1000021e 	bne	r2,zero,80834 <adv7513_edid_read+0x90>
			return -1;
   8082c:	00bfffc4 	movi	r2,-1
   80830:	00000c06 	br	80864 <adv7513_edid_read+0xc0>
{
	bool r = 0;
	alt_u8 *regv = (alt_u8 *)edid;
	int i;

	for (i = 0 + segment * 256; i < (segment + 1) * 256; ++i, ++regv) {
   80834:	e0bffb17 	ldw	r2,-20(fp)
   80838:	10800044 	addi	r2,r2,1
   8083c:	e0bffb15 	stw	r2,-20(fp)
   80840:	e0bffa17 	ldw	r2,-24(fp)
   80844:	10800044 	addi	r2,r2,1
   80848:	e0bffa15 	stw	r2,-24(fp)
   8084c:	e0bfff17 	ldw	r2,-4(fp)
   80850:	10800044 	addi	r2,r2,1
   80854:	1004923a 	slli	r2,r2,8
   80858:	e0fffb17 	ldw	r3,-20(fp)
   8085c:	18bfe016 	blt	r3,r2,807e0 <adv7513_edid_read+0x3c>
		r = I2C_Read(I2C_SCL_BASE, I2C_SDA_BASE, ec->edid_addr, i, regv);
		if (!r)
			return -1;
	}

	return 0;
   80860:	0005883a 	mov	r2,zero
}
   80864:	e037883a 	mov	sp,fp
   80868:	dfc00117 	ldw	ra,4(sp)
   8086c:	df000017 	ldw	fp,0(sp)
   80870:	dec00204 	addi	sp,sp,8
   80874:	f800283a 	ret

00080878 <adv7513_regmap_dump>:

int adv7513_regmap_dump(struct hdmi_encoder *ec, void *data, int offset)
{
   80878:	defff704 	addi	sp,sp,-36
   8087c:	dfc00815 	stw	ra,32(sp)
   80880:	df000715 	stw	fp,28(sp)
   80884:	df000704 	addi	fp,sp,28
   80888:	e13ffd15 	stw	r4,-12(fp)
   8088c:	e17ffe15 	stw	r5,-8(fp)
   80890:	e1bfff15 	stw	r6,-4(fp)
   80894:	d83bb615 	stw	zero,-4392(sp)
	bool r = 0;
   80898:	e03ffc15 	stw	zero,-16(fp)
	alt_u8 *regv = (alt_u8 *)data;
   8089c:	e0bffe17 	ldw	r2,-8(fp)
   808a0:	e0bffa15 	stw	r2,-24(fp)
	int i;

	for (i = 0; i < 256; ++i, ++regv) {
   808a4:	e03ffb15 	stw	zero,-20(fp)
   808a8:	00001b06 	br	80918 <adv7513_regmap_dump+0xa0>
		r = I2C_Read(I2C_SCL_BASE, I2C_SDA_BASE, ec->slave_addr, i, regv);
   808ac:	e0bffd17 	ldw	r2,-12(fp)
   808b0:	10800017 	ldw	r2,0(r2)
   808b4:	10c03fcc 	andi	r3,r2,255
   808b8:	18c0201c 	xori	r3,r3,128
   808bc:	18ffe004 	addi	r3,r3,-128
   808c0:	e0bffb17 	ldw	r2,-20(fp)
   808c4:	10803fcc 	andi	r2,r2,255
   808c8:	e13ffa17 	ldw	r4,-24(fp)
   808cc:	d9000015 	stw	r4,0(sp)
   808d0:	01000434 	movhi	r4,16
   808d4:	21041004 	addi	r4,r4,4160
   808d8:	01400434 	movhi	r5,16
   808dc:	29441404 	addi	r5,r5,4176
   808e0:	180d883a 	mov	r6,r3
   808e4:	100f883a 	mov	r7,r2
   808e8:	008ab380 	call	8ab38 <I2C_Read>
   808ec:	e0bffc15 	stw	r2,-16(fp)
		if (!r)
   808f0:	e0bffc17 	ldw	r2,-16(fp)
   808f4:	1000021e 	bne	r2,zero,80900 <adv7513_regmap_dump+0x88>
			return -1;
   808f8:	00bfffc4 	movi	r2,-1
   808fc:	00000a06 	br	80928 <adv7513_regmap_dump+0xb0>
{
	bool r = 0;
	alt_u8 *regv = (alt_u8 *)data;
	int i;

	for (i = 0; i < 256; ++i, ++regv) {
   80900:	e0bffb17 	ldw	r2,-20(fp)
   80904:	10800044 	addi	r2,r2,1
   80908:	e0bffb15 	stw	r2,-20(fp)
   8090c:	e0bffa17 	ldw	r2,-24(fp)
   80910:	10800044 	addi	r2,r2,1
   80914:	e0bffa15 	stw	r2,-24(fp)
   80918:	e0bffb17 	ldw	r2,-20(fp)
   8091c:	10804010 	cmplti	r2,r2,256
   80920:	103fe21e 	bne	r2,zero,808ac <adv7513_regmap_dump+0x34>
		r = I2C_Read(I2C_SCL_BASE, I2C_SDA_BASE, ec->slave_addr, i, regv);
		if (!r)
			return -1;
	}

	return 0;
   80924:	0005883a 	mov	r2,zero
}
   80928:	e037883a 	mov	sp,fp
   8092c:	dfc00117 	ldw	ra,4(sp)
   80930:	df000017 	ldw	fp,0(sp)
   80934:	dec00204 	addi	sp,sp,8
   80938:	f800283a 	ret

0008093c <adv7513_config_csc>:

// color space converter (section 4.3.8)
static int adv7513_config_csc(struct hdmi_encoder *ec, int enable, void *config)
{
   8093c:	defffa04 	addi	sp,sp,-24
   80940:	dfc00515 	stw	ra,20(sp)
   80944:	df000415 	stw	fp,16(sp)
   80948:	df000404 	addi	fp,sp,16
   8094c:	e13ffd15 	stw	r4,-12(fp)
   80950:	e17ffe15 	stw	r5,-8(fp)
   80954:	e1bfff15 	stw	r6,-4(fp)
   80958:	d83bb615 	stw	zero,-4392(sp)
	//printf("adv7513_config_csc()\n");

	// 0x18[7] <- enable
	// 0x18[6:5] <- scaling
	// 0x18[4:0] <- csc_a1[4:0]
	int regv = (enable ? 1 : 0) << 7;
   8095c:	e0bffe17 	ldw	r2,-8(fp)
   80960:	10000226 	beq	r2,zero,8096c <adv7513_config_csc+0x30>
   80964:	00802004 	movi	r2,128
   80968:	00000106 	br	80970 <adv7513_config_csc+0x34>
   8096c:	0005883a 	mov	r2,zero
   80970:	e0bffc15 	stw	r2,-16(fp)
	if (reg_update_bits(ec, 0x18, 0x80, regv) != 0)
   80974:	e13ffd17 	ldw	r4,-12(fp)
   80978:	01400604 	movi	r5,24
   8097c:	01802004 	movi	r6,128
   80980:	e1fffc17 	ldw	r7,-16(fp)
   80984:	008a7300 	call	8a730 <reg_update_bits>
   80988:	10000226 	beq	r2,zero,80994 <adv7513_config_csc+0x58>
		return -1;
   8098c:	00bfffc4 	movi	r2,-1
   80990:	00000106 	br	80998 <adv7513_config_csc+0x5c>
	// 0x2d[7:0] <- csc_c3[12:5]

	// 0x2e[4:0] <- csc_c4[4:0]
	// 0x2f[7:0] <- csc_c4[12:5]

	return 0;
   80994:	0005883a 	mov	r2,zero
}
   80998:	e037883a 	mov	sp,fp
   8099c:	dfc00117 	ldw	ra,4(sp)
   809a0:	df000017 	ldw	fp,0(sp)
   809a4:	dec00204 	addi	sp,sp,8
   809a8:	f800283a 	ret

000809ac <adv7513_video_in_format>:
// depth       - adv7513_input_color_depth
// color_space - adv7513_input_color_space
// aspect      - adv7513_input_aspect_ratio
// style       - adv7513_input_style
static int adv7513_video_in_format(struct hdmi_encoder *ec, int id, int depth, int color_space, int aspect, int style)
{
   809ac:	defff904 	addi	sp,sp,-28
   809b0:	dfc00615 	stw	ra,24(sp)
   809b4:	df000515 	stw	fp,20(sp)
   809b8:	df000504 	addi	fp,sp,20
   809bc:	e13ffc15 	stw	r4,-16(fp)
   809c0:	e17ffd15 	stw	r5,-12(fp)
   809c4:	e1bffe15 	stw	r6,-8(fp)
   809c8:	e1ffff15 	stw	r7,-4(fp)
   809cc:	d83bb615 	stw	zero,-4392(sp)
	int regv;

	//printf("adv7513_video_in_format()\n");

	// 0x15[3:0] <- id
	if (reg_update_bits(ec, 0x15, 0x0f, id) != 0)
   809d0:	e13ffc17 	ldw	r4,-16(fp)
   809d4:	01400544 	movi	r5,21
   809d8:	018003c4 	movi	r6,15
   809dc:	e1fffd17 	ldw	r7,-12(fp)
   809e0:	008a7300 	call	8a730 <reg_update_bits>
   809e4:	10000226 	beq	r2,zero,809f0 <adv7513_video_in_format+0x44>
		return -1;
   809e8:	00bfffc4 	movi	r2,-1
   809ec:	00002006 	br	80a70 <adv7513_video_in_format+0xc4>

	// 0x16[5:4] <- depth
	// 0x16[3:2] <- style
	// 0x16[0] <- color_space
	regv = ((depth & 0x03) << 4) | ((style & 0x03) << 2) | (color_space & 0x01);
   809f0:	e0bffe17 	ldw	r2,-8(fp)
   809f4:	108000cc 	andi	r2,r2,3
   809f8:	1006913a 	slli	r3,r2,4
   809fc:	e0800317 	ldw	r2,12(fp)
   80a00:	108000cc 	andi	r2,r2,3
   80a04:	1085883a 	add	r2,r2,r2
   80a08:	1085883a 	add	r2,r2,r2
   80a0c:	1886b03a 	or	r3,r3,r2
   80a10:	e0bfff17 	ldw	r2,-4(fp)
   80a14:	1080004c 	andi	r2,r2,1
   80a18:	1884b03a 	or	r2,r3,r2
   80a1c:	e0bffb15 	stw	r2,-20(fp)
	if (reg_update_bits(ec, 0x16, 0x3d, regv) != 0)
   80a20:	e13ffc17 	ldw	r4,-16(fp)
   80a24:	01400584 	movi	r5,22
   80a28:	01800f44 	movi	r6,61
   80a2c:	e1fffb17 	ldw	r7,-20(fp)
   80a30:	008a7300 	call	8a730 <reg_update_bits>
   80a34:	10000226 	beq	r2,zero,80a40 <adv7513_video_in_format+0x94>
		return -1;
   80a38:	00bfffc4 	movi	r2,-1
   80a3c:	00000c06 	br	80a70 <adv7513_video_in_format+0xc4>

	// 0x17[1] <- aspect
	if (reg_update_bits(ec, 0x17, 0x02, (aspect & 0x01) << 1) != 0)
   80a40:	e0800217 	ldw	r2,8(fp)
   80a44:	1080004c 	andi	r2,r2,1
   80a48:	1085883a 	add	r2,r2,r2
   80a4c:	e13ffc17 	ldw	r4,-16(fp)
   80a50:	014005c4 	movi	r5,23
   80a54:	01800084 	movi	r6,2
   80a58:	100f883a 	mov	r7,r2
   80a5c:	008a7300 	call	8a730 <reg_update_bits>
   80a60:	10000226 	beq	r2,zero,80a6c <adv7513_video_in_format+0xc0>
		return -1;
   80a64:	00bfffc4 	movi	r2,-1
   80a68:	00000106 	br	80a70 <adv7513_video_in_format+0xc4>

	return 0;
   80a6c:	0005883a 	mov	r2,zero
}
   80a70:	e037883a 	mov	sp,fp
   80a74:	dfc00117 	ldw	ra,4(sp)
   80a78:	df000017 	ldw	fp,0(sp)
   80a7c:	dec00204 	addi	sp,sp,8
   80a80:	f800283a 	ret

00080a84 <adv7513_video_out_format>:
// out video format
//
// format   - adv7513_output_format
// dvi		- adv7513_hdmi_dvi
static int adv7513_video_out_format(struct hdmi_encoder *ec, int format, int dvi)
{
   80a84:	defffa04 	addi	sp,sp,-24
   80a88:	dfc00515 	stw	ra,20(sp)
   80a8c:	df000415 	stw	fp,16(sp)
   80a90:	df000404 	addi	fp,sp,16
   80a94:	e13ffd15 	stw	r4,-12(fp)
   80a98:	e17ffe15 	stw	r5,-8(fp)
   80a9c:	e1bfff15 	stw	r6,-4(fp)
   80aa0:	d83bb615 	stw	zero,-4392(sp)
	int regv;

	//printf("adv7513_video_out_format()\n");

	// 0x16[7] <- format
	regv = (format & 0x01) << 7;
   80aa4:	e0bffe17 	ldw	r2,-8(fp)
   80aa8:	100491fa 	slli	r2,r2,7
   80aac:	10803fcc 	andi	r2,r2,255
   80ab0:	e0bffc15 	stw	r2,-16(fp)
	if (reg_update_bits(ec, 0x16, 0x80, regv) != 0)
   80ab4:	e13ffd17 	ldw	r4,-12(fp)
   80ab8:	01400584 	movi	r5,22
   80abc:	01802004 	movi	r6,128
   80ac0:	e1fffc17 	ldw	r7,-16(fp)
   80ac4:	008a7300 	call	8a730 <reg_update_bits>
   80ac8:	10000226 	beq	r2,zero,80ad4 <adv7513_video_out_format+0x50>
		return -1;
   80acc:	00bfffc4 	movi	r2,-1
   80ad0:	00002d06 	br	80b88 <adv7513_video_out_format+0x104>

	// 0x18 ~ 0x2f
	if (adv7513_config_csc(ec, 0, 0) != 0) {
   80ad4:	e13ffd17 	ldw	r4,-12(fp)
   80ad8:	000b883a 	mov	r5,zero
   80adc:	000d883a 	mov	r6,zero
   80ae0:	008093c0 	call	8093c <adv7513_config_csc>
   80ae4:	10000226 	beq	r2,zero,80af0 <adv7513_video_out_format+0x6c>
		return -1;
   80ae8:	00bfffc4 	movi	r2,-1
   80aec:	00002606 	br	80b88 <adv7513_video_out_format+0x104>
	}

	// 0xaf[7] <- hdcp (enable/disable)
	// 0xaf[1] <- dvi (section 4.2.2)
	if (reg_update_bits(ec, 0xaf, 0x82, (dvi & 0x01) << 1) != 0)
   80af0:	e0bfff17 	ldw	r2,-4(fp)
   80af4:	1080004c 	andi	r2,r2,1
   80af8:	1085883a 	add	r2,r2,r2
   80afc:	e13ffd17 	ldw	r4,-12(fp)
   80b00:	01402bc4 	movi	r5,175
   80b04:	01802084 	movi	r6,130
   80b08:	100f883a 	mov	r7,r2
   80b0c:	008a7300 	call	8a730 <reg_update_bits>
   80b10:	10000226 	beq	r2,zero,80b1c <adv7513_video_out_format+0x98>
		return -1;
   80b14:	00bfffc4 	movi	r2,-1
   80b18:	00001b06 	br	80b88 <adv7513_video_out_format+0x104>

	// general control packet
	// 0x40[7] <- gc (section 4.2.3 && 4.3.3)
	if (dvi == ADV7513_MODE_HDMI) {
   80b1c:	e0bfff17 	ldw	r2,-4(fp)
   80b20:	10800058 	cmpnei	r2,r2,1
   80b24:	1000081e 	bne	r2,zero,80b48 <adv7513_video_out_format+0xc4>
		if (reg_update_bits(ec, 0x40, 0x80, (1 & 0x01) << 7) != 0)
   80b28:	e13ffd17 	ldw	r4,-12(fp)
   80b2c:	01401004 	movi	r5,64
   80b30:	01802004 	movi	r6,128
   80b34:	01c02004 	movi	r7,128
   80b38:	008a7300 	call	8a730 <reg_update_bits>
   80b3c:	10000926 	beq	r2,zero,80b64 <adv7513_video_out_format+0xe0>
			return -1;
   80b40:	00bfffc4 	movi	r2,-1
   80b44:	00001006 	br	80b88 <adv7513_video_out_format+0x104>
	} else {
		if (reg_clear_bits(ec, 0x40, 0x80) != 0)
   80b48:	e13ffd17 	ldw	r4,-12(fp)
   80b4c:	01401004 	movi	r5,64
   80b50:	01802004 	movi	r6,128
   80b54:	008a9580 	call	8a958 <reg_clear_bits>
   80b58:	10000226 	beq	r2,zero,80b64 <adv7513_video_out_format+0xe0>
			return -1;
   80b5c:	00bfffc4 	movi	r2,-1
   80b60:	00000906 	br	80b88 <adv7513_video_out_format+0x104>
	}

	// 0x4c[3:0] <- gc_depth (section 4.2.6)
	if (reg_update_bits(ec, 0x4c, 0x0f, 4 & 0x0f) != 0)
   80b64:	e13ffd17 	ldw	r4,-12(fp)
   80b68:	01401304 	movi	r5,76
   80b6c:	018003c4 	movi	r6,15
   80b70:	01c00104 	movi	r7,4
   80b74:	008a7300 	call	8a730 <reg_update_bits>
   80b78:	10000226 	beq	r2,zero,80b84 <adv7513_video_out_format+0x100>
		return -1;
   80b7c:	00bfffc4 	movi	r2,-1
   80b80:	00000106 	br	80b88 <adv7513_video_out_format+0x104>
	// VIC <- vga 4:3
	// 0x3c[5:0] <- 0x01 & 0x3f
	//if (reg_update_bits(ec, 0x3c, 0x3f, 0x01) != 0)
	//	return -1;

	return 0;
   80b84:	0005883a 	mov	r2,zero
}
   80b88:	e037883a 	mov	sp,fp
   80b8c:	dfc00117 	ldw	ra,4(sp)
   80b90:	df000017 	ldw	fp,0(sp)
   80b94:	dec00204 	addi	sp,sp,8
   80b98:	f800283a 	ret

00080b9c <adv7513_avi_infoframe>:
//   CEA-861-D --section 6.2
//   ADV7513 programmer's manual -- section 4.3.9.1
//
// 0x52 ~ 0x71
static int adv7513_avi_infoframe(struct hdmi_encoder *ec)
{
   80b9c:	defffb04 	addi	sp,sp,-20
   80ba0:	dfc00415 	stw	ra,16(sp)
   80ba4:	df000315 	stw	fp,12(sp)
   80ba8:	df000304 	addi	fp,sp,12
   80bac:	e13fff15 	stw	r4,-4(fp)
   80bb0:	d83bb615 	stw	zero,-4392(sp)
	struct avi_infoframe *avi = &ec->avi_if;
   80bb4:	e0bfff17 	ldw	r2,-4(fp)
   80bb8:	10800904 	addi	r2,r2,36
   80bbc:	e0bffd15 	stw	r2,-12(fp)
	int regv;

	//printf("adv7513_avi_infoframe()\n");

#if 1  // local development defaults
	avi->scan_info = 2;  		// scan
   80bc0:	e0bffd17 	ldw	r2,-12(fp)
   80bc4:	00c00084 	movi	r3,2
   80bc8:	10c00015 	stw	r3,0(r2)
	avi->rgb_ycbcr = 0;			// rgb or ycbcr
   80bcc:	e0bffd17 	ldw	r2,-12(fp)
   80bd0:	10000315 	stw	zero,12(r2)
	//avi->f7 = 0;				// reserved
	avi->active_fmt = 1;		// active format r3r0 valid
   80bd4:	e0bffd17 	ldw	r2,-12(fp)
   80bd8:	00c00044 	movi	r3,1
   80bdc:	10c00215 	stw	r3,8(r2)
	avi->active_fmt_ar = 8;		// active format aspect ratio
   80be0:	e0bffd17 	ldw	r2,-12(fp)
   80be4:	00c00204 	movi	r3,8
   80be8:	10c00415 	stw	r3,16(r2)
	avi->pict_ar = 1;			// picture aspect ratio
   80bec:	e0bffd17 	ldw	r2,-12(fp)
   80bf0:	00c00044 	movi	r3,1
   80bf4:	10c00515 	stw	r3,20(r2)
	avi->colorimetry = 0;		// colorimetry
   80bf8:	e0bffd17 	ldw	r2,-12(fp)
   80bfc:	10000615 	stw	zero,24(r2)
	avi->colorimetry_ext = 0;	// extended colorimetry
   80c00:	e0bffd17 	ldw	r2,-12(fp)
   80c04:	10000915 	stw	zero,36(r2)
	avi->scaling = 0;			// non-uniform scaling
   80c08:	e0bffd17 	ldw	r2,-12(fp)
   80c0c:	10000715 	stw	zero,28(r2)
	avi->quant = 0;				// rgb quantization range
   80c10:	e0bffd17 	ldw	r2,-12(fp)
   80c14:	10000815 	stw	zero,32(r2)
	avi->itc = 0;				// it content
   80c18:	e0bffd17 	ldw	r2,-12(fp)
   80c1c:	10000a15 	stw	zero,40(r2)
	avi->pr = 0;				// pixel repetition factor
   80c20:	e0bffd17 	ldw	r2,-12(fp)
   80c24:	10000c15 	stw	zero,48(r2)
	avi->vic = 1;				// video identification code
   80c28:	e0bffd17 	ldw	r2,-12(fp)
   80c2c:	00c00044 	movi	r3,1
   80c30:	10c00b15 	stw	r3,44(r2)
	avi->yq1yq0 = 0;			// ??
   80c34:	e0bffd17 	ldw	r2,-12(fp)
   80c38:	10000d15 	stw	zero,52(r2)

	avi->bar_info = 1;  		// bar fields valid
   80c3c:	e0bffd17 	ldw	r2,-12(fp)
   80c40:	00c00044 	movi	r3,1
   80c44:	10c00115 	stw	r3,4(r2)
	avi->bar.top_e = 0;
   80c48:	e0bffd17 	ldw	r2,-12(fp)
   80c4c:	10000e15 	stw	zero,56(r2)
	avi->bar.bottom_s = 0;
   80c50:	e0bffd17 	ldw	r2,-12(fp)
   80c54:	10000f15 	stw	zero,60(r2)
	avi->bar.left_e = 0;
   80c58:	e0bffd17 	ldw	r2,-12(fp)
   80c5c:	10001015 	stw	zero,64(r2)
	avi->bar.right_s = 0;
   80c60:	e0bffd17 	ldw	r2,-12(fp)
   80c64:	10001115 	stw	zero,68(r2)
	//   0x55[6:5]
	//   0x56[5:4]

	// 0x44[4] avi infoframe enable 0)disable 1)enable
	// 0x44[3] audio infoframe enable 0)disable 1)enable
	if (reg_update_bits(ec, 0x44, 0x10, 1 << 4) != 0)
   80c68:	e13fff17 	ldw	r4,-4(fp)
   80c6c:	01401104 	movi	r5,68
   80c70:	01800404 	movi	r6,16
   80c74:	01c00404 	movi	r7,16
   80c78:	008a7300 	call	8a730 <reg_update_bits>
   80c7c:	10000226 	beq	r2,zero,80c88 <adv7513_avi_infoframe+0xec>
		return -1;
   80c80:	00bfffc4 	movi	r2,-1
   80c84:	0000c406 	br	80f98 <adv7513_avi_infoframe+0x3fc>

	// 0x4a[7] <- auto checksum
	// 0x4a[6] avi infoframe packet update 0)locked-by-packet_buffer 1)locked-by-i2c
	// 0x4a[5] audio infoframe packet update 0)locked-by-packet_buffer 1)locked-by-i2c
	// 0x4a[4] gc packet update 0)locked-by-packet_buffer 1)locked-by-i2c
	if (reg_update_bits(ec, 0x4a, 0xc0, 3 << 6) != 0)
   80c88:	e13fff17 	ldw	r4,-4(fp)
   80c8c:	01401284 	movi	r5,74
   80c90:	01803004 	movi	r6,192
   80c94:	01c03004 	movi	r7,192
   80c98:	008a7300 	call	8a730 <reg_update_bits>
   80c9c:	10000226 	beq	r2,zero,80ca8 <adv7513_avi_infoframe+0x10c>
		return -1;
   80ca0:	00bfffc4 	movi	r2,-1
   80ca4:	0000bc06 	br	80f98 <adv7513_avi_infoframe+0x3fc>

	// 0x55[6:5] <- output format 0)rgb 1)ycbcr422 2)ycbcr444
	// 0x55[4]   <- active format indicator 0)no-data 1)valid (bar, scan, colorimetry, non-uniform-scaling, active-aspect-ratio)
	// 0x55[3:2] <- bar 0)invalid-bar 1)vertical 2)horizontal 3)both
	// 0x55[1:0] <- scan 0)no-data 1)tv 2)pc 3)none
	regv = ((avi->rgb_ycbcr & 0x03) << 5) | ((avi->active_fmt & 0x01) << 4) | ((avi->bar_info & 0x03) << 2) | ((avi->scan_info & 0x03) << 0);
   80ca8:	e0bffd17 	ldw	r2,-12(fp)
   80cac:	10800317 	ldw	r2,12(r2)
   80cb0:	108000cc 	andi	r2,r2,3
   80cb4:	1006917a 	slli	r3,r2,5
   80cb8:	e0bffd17 	ldw	r2,-12(fp)
   80cbc:	10800217 	ldw	r2,8(r2)
   80cc0:	1080004c 	andi	r2,r2,1
   80cc4:	1004913a 	slli	r2,r2,4
   80cc8:	1886b03a 	or	r3,r3,r2
   80ccc:	e0bffd17 	ldw	r2,-12(fp)
   80cd0:	10800117 	ldw	r2,4(r2)
   80cd4:	108000cc 	andi	r2,r2,3
   80cd8:	1085883a 	add	r2,r2,r2
   80cdc:	1085883a 	add	r2,r2,r2
   80ce0:	1886b03a 	or	r3,r3,r2
   80ce4:	e0bffd17 	ldw	r2,-12(fp)
   80ce8:	10800017 	ldw	r2,0(r2)
   80cec:	108000cc 	andi	r2,r2,3
   80cf0:	1884b03a 	or	r2,r3,r2
   80cf4:	e0bffe15 	stw	r2,-8(fp)
	if (reg_update_bits(ec, 0x55, 0x70, regv) != 0)
   80cf8:	e13fff17 	ldw	r4,-4(fp)
   80cfc:	01401544 	movi	r5,85
   80d00:	01801c04 	movi	r6,112
   80d04:	e1fffe17 	ldw	r7,-8(fp)
   80d08:	008a7300 	call	8a730 <reg_update_bits>
   80d0c:	10000226 	beq	r2,zero,80d18 <adv7513_avi_infoframe+0x17c>
		return -1;
   80d10:	00bfffc4 	movi	r2,-1
   80d14:	0000a006 	br	80f98 <adv7513_avi_infoframe+0x3fc>

	// 0x56[7:6] <- colorimetry 0)no-data 1)ITU601 2)ITU709 3)extended <- 0x57[6:4]
	// 0x56[5:4] <- picture aspect ratio 0)no-data 1)4:3 2)16:9 3)none
	// 0x56[3:0] <- active aspect ratio 8)same as 0x56[5:4] 9)4:3 10)16:0 11)14:9
	regv = ((avi->colorimetry & 0x03) << 6) | ((avi->pict_ar & 0x03) << 4) | ((avi->active_fmt_ar & 0x0f) << 0);
   80d18:	e0bffd17 	ldw	r2,-12(fp)
   80d1c:	10800617 	ldw	r2,24(r2)
   80d20:	100491ba 	slli	r2,r2,6
   80d24:	10c03fcc 	andi	r3,r2,255
   80d28:	e0bffd17 	ldw	r2,-12(fp)
   80d2c:	10800517 	ldw	r2,20(r2)
   80d30:	108000cc 	andi	r2,r2,3
   80d34:	1004913a 	slli	r2,r2,4
   80d38:	1886b03a 	or	r3,r3,r2
   80d3c:	e0bffd17 	ldw	r2,-12(fp)
   80d40:	10800417 	ldw	r2,16(r2)
   80d44:	108003cc 	andi	r2,r2,15
   80d48:	1884b03a 	or	r2,r3,r2
   80d4c:	e0bffe15 	stw	r2,-8(fp)
	if (reg_write(ec, 0x56, regv) != 0)
   80d50:	e13fff17 	ldw	r4,-4(fp)
   80d54:	01401584 	movi	r5,86
   80d58:	e1bffe17 	ldw	r6,-8(fp)
   80d5c:	008a6a00 	call	8a6a0 <reg_write>
   80d60:	10000226 	beq	r2,zero,80d6c <adv7513_avi_infoframe+0x1d0>
		return -1;
   80d64:	00bfffc4 	movi	r2,-1
   80d68:	00008b06 	br	80f98 <adv7513_avi_infoframe+0x3fc>

	// 0x57[7] <- itc 0)none 1)available in 0x59[5:4]
	// 0x57[6:4] <- extended colorimetry 0)xvYCC601 1)xvYCC701 2)sYCC601 3)AdobeYCC601 4)AdobeRGB
	// 0x57[3:2] <- rgb quantization range 0)default 1)limited 2)full 11)reserved
	// 0x57[1:0] <- non-uniform picture scaling 0)unknown 1)h-scaling 2) v-scaling 3)h/v scaling
	regv = ((avi->itc & 0x01) << 7) | ((avi->colorimetry_ext & 0x07) << 4) | ((avi->quant & 0x03) << 2) | ((avi->scaling & 0x03) << 0);
   80d6c:	e0bffd17 	ldw	r2,-12(fp)
   80d70:	10800a17 	ldw	r2,40(r2)
   80d74:	100491fa 	slli	r2,r2,7
   80d78:	10c03fcc 	andi	r3,r2,255
   80d7c:	e0bffd17 	ldw	r2,-12(fp)
   80d80:	10800917 	ldw	r2,36(r2)
   80d84:	108001cc 	andi	r2,r2,7
   80d88:	1004913a 	slli	r2,r2,4
   80d8c:	1886b03a 	or	r3,r3,r2
   80d90:	e0bffd17 	ldw	r2,-12(fp)
   80d94:	10800817 	ldw	r2,32(r2)
   80d98:	108000cc 	andi	r2,r2,3
   80d9c:	1085883a 	add	r2,r2,r2
   80da0:	1085883a 	add	r2,r2,r2
   80da4:	1886b03a 	or	r3,r3,r2
   80da8:	e0bffd17 	ldw	r2,-12(fp)
   80dac:	10800717 	ldw	r2,28(r2)
   80db0:	108000cc 	andi	r2,r2,3
   80db4:	1884b03a 	or	r2,r3,r2
   80db8:	e0bffe15 	stw	r2,-8(fp)
	if (reg_write(ec, 0x57, regv) != 0)
   80dbc:	e13fff17 	ldw	r4,-4(fp)
   80dc0:	014015c4 	movi	r5,87
   80dc4:	e1bffe17 	ldw	r6,-8(fp)
   80dc8:	008a6a00 	call	8a6a0 <reg_write>
   80dcc:	10000226 	beq	r2,zero,80dd8 <adv7513_avi_infoframe+0x23c>
		return -1;
   80dd0:	00bfffc4 	movi	r2,-1
   80dd4:	00007006 	br	80f98 <adv7513_avi_infoframe+0x3fc>

	// 0x59[7:4] <- extended colorimetry 0)xvYCC601 1)xvYCC701 2)sYCC601 3)AdobeYCC601 4)AdobeRGB
	regv = ((avi->yq1yq0 & 0x0f) << 4);
   80dd8:	e0bffd17 	ldw	r2,-12(fp)
   80ddc:	10800d17 	ldw	r2,52(r2)
   80de0:	1004913a 	slli	r2,r2,4
   80de4:	10803fcc 	andi	r2,r2,255
   80de8:	e0bffe15 	stw	r2,-8(fp)
	if (reg_write(ec, 0x59, regv) != 0)
   80dec:	e13fff17 	ldw	r4,-4(fp)
   80df0:	01401644 	movi	r5,89
   80df4:	e1bffe17 	ldw	r6,-8(fp)
   80df8:	008a6a00 	call	8a6a0 <reg_write>
   80dfc:	10000226 	beq	r2,zero,80e08 <adv7513_avi_infoframe+0x26c>
		return -1;
   80e00:	00bfffc4 	movi	r2,-1
   80e04:	00006406 	br	80f98 <adv7513_avi_infoframe+0x3fc>

	// 0x5a[7:0] <- active line (bar)
	regv = avi->bar.top_e & 0xff;
   80e08:	e0bffd17 	ldw	r2,-12(fp)
   80e0c:	10800e17 	ldw	r2,56(r2)
   80e10:	10803fcc 	andi	r2,r2,255
   80e14:	e0bffe15 	stw	r2,-8(fp)
	if (reg_write(ec, 0x5a, regv) != 0)
   80e18:	e13fff17 	ldw	r4,-4(fp)
   80e1c:	01401684 	movi	r5,90
   80e20:	e1bffe17 	ldw	r6,-8(fp)
   80e24:	008a6a00 	call	8a6a0 <reg_write>
   80e28:	10000226 	beq	r2,zero,80e34 <adv7513_avi_infoframe+0x298>
		return -1;
   80e2c:	00bfffc4 	movi	r2,-1
   80e30:	00005906 	br	80f98 <adv7513_avi_infoframe+0x3fc>

	// 0x5b[7:0] <- active line (bar)
	regv = (avi->bar.top_e >> 8) & 0xff;
   80e34:	e0bffd17 	ldw	r2,-12(fp)
   80e38:	10800e17 	ldw	r2,56(r2)
   80e3c:	1005d23a 	srai	r2,r2,8
   80e40:	10803fcc 	andi	r2,r2,255
   80e44:	e0bffe15 	stw	r2,-8(fp)
	if (reg_write(ec, 0x5b, regv) != 0)
   80e48:	e13fff17 	ldw	r4,-4(fp)
   80e4c:	014016c4 	movi	r5,91
   80e50:	e1bffe17 	ldw	r6,-8(fp)
   80e54:	008a6a00 	call	8a6a0 <reg_write>
   80e58:	10000226 	beq	r2,zero,80e64 <adv7513_avi_infoframe+0x2c8>
		return -1;
   80e5c:	00bfffc4 	movi	r2,-1
   80e60:	00004d06 	br	80f98 <adv7513_avi_infoframe+0x3fc>

	// 0x5c[7:0] <- active line (bar)
	regv = avi->bar.bottom_s & 0xff;
   80e64:	e0bffd17 	ldw	r2,-12(fp)
   80e68:	10800f17 	ldw	r2,60(r2)
   80e6c:	10803fcc 	andi	r2,r2,255
   80e70:	e0bffe15 	stw	r2,-8(fp)
	if (reg_write(ec, 0x5c, regv) != 0)
   80e74:	e13fff17 	ldw	r4,-4(fp)
   80e78:	01401704 	movi	r5,92
   80e7c:	e1bffe17 	ldw	r6,-8(fp)
   80e80:	008a6a00 	call	8a6a0 <reg_write>
   80e84:	10000226 	beq	r2,zero,80e90 <adv7513_avi_infoframe+0x2f4>
		return -1;
   80e88:	00bfffc4 	movi	r2,-1
   80e8c:	00004206 	br	80f98 <adv7513_avi_infoframe+0x3fc>

	// 0x5d[7:0] <- active line (bar)
	regv = (avi->bar.bottom_s >> 8) & 0xff;
   80e90:	e0bffd17 	ldw	r2,-12(fp)
   80e94:	10800f17 	ldw	r2,60(r2)
   80e98:	1005d23a 	srai	r2,r2,8
   80e9c:	10803fcc 	andi	r2,r2,255
   80ea0:	e0bffe15 	stw	r2,-8(fp)
	if (reg_write(ec, 0x5d, regv) != 0)
   80ea4:	e13fff17 	ldw	r4,-4(fp)
   80ea8:	01401744 	movi	r5,93
   80eac:	e1bffe17 	ldw	r6,-8(fp)
   80eb0:	008a6a00 	call	8a6a0 <reg_write>
   80eb4:	10000226 	beq	r2,zero,80ec0 <adv7513_avi_infoframe+0x324>
		return -1;
   80eb8:	00bfffc4 	movi	r2,-1
   80ebc:	00003606 	br	80f98 <adv7513_avi_infoframe+0x3fc>

	// 0x5e[7:0] <- active line (bar)
	regv = avi->bar.left_e & 0xff;
   80ec0:	e0bffd17 	ldw	r2,-12(fp)
   80ec4:	10801017 	ldw	r2,64(r2)
   80ec8:	10803fcc 	andi	r2,r2,255
   80ecc:	e0bffe15 	stw	r2,-8(fp)
	if (reg_write(ec, 0x5e, regv) != 0)
   80ed0:	e13fff17 	ldw	r4,-4(fp)
   80ed4:	01401784 	movi	r5,94
   80ed8:	e1bffe17 	ldw	r6,-8(fp)
   80edc:	008a6a00 	call	8a6a0 <reg_write>
   80ee0:	10000226 	beq	r2,zero,80eec <adv7513_avi_infoframe+0x350>
		return -1;
   80ee4:	00bfffc4 	movi	r2,-1
   80ee8:	00002b06 	br	80f98 <adv7513_avi_infoframe+0x3fc>

	// 0x5f[7:0] <- active line (bar)
	regv = (avi->bar.left_e >> 8) & 0xff;
   80eec:	e0bffd17 	ldw	r2,-12(fp)
   80ef0:	10801017 	ldw	r2,64(r2)
   80ef4:	1005d23a 	srai	r2,r2,8
   80ef8:	10803fcc 	andi	r2,r2,255
   80efc:	e0bffe15 	stw	r2,-8(fp)
	if (reg_write(ec, 0x5f, regv) != 0)
   80f00:	e13fff17 	ldw	r4,-4(fp)
   80f04:	014017c4 	movi	r5,95
   80f08:	e1bffe17 	ldw	r6,-8(fp)
   80f0c:	008a6a00 	call	8a6a0 <reg_write>
   80f10:	10000226 	beq	r2,zero,80f1c <adv7513_avi_infoframe+0x380>
		return -1;
   80f14:	00bfffc4 	movi	r2,-1
   80f18:	00001f06 	br	80f98 <adv7513_avi_infoframe+0x3fc>

	// 0x60[7:0] <- active line (bar)
	regv = avi->bar.right_s & 0xff;
   80f1c:	e0bffd17 	ldw	r2,-12(fp)
   80f20:	10801117 	ldw	r2,68(r2)
   80f24:	10803fcc 	andi	r2,r2,255
   80f28:	e0bffe15 	stw	r2,-8(fp)
	if (reg_write(ec, 0x60, regv) != 0)
   80f2c:	e13fff17 	ldw	r4,-4(fp)
   80f30:	01401804 	movi	r5,96
   80f34:	e1bffe17 	ldw	r6,-8(fp)
   80f38:	008a6a00 	call	8a6a0 <reg_write>
   80f3c:	10000226 	beq	r2,zero,80f48 <adv7513_avi_infoframe+0x3ac>
		return -1;
   80f40:	00bfffc4 	movi	r2,-1
   80f44:	00001406 	br	80f98 <adv7513_avi_infoframe+0x3fc>

	// 0x61[7:0] <- active line (bar)
	regv = (avi->bar.right_s >> 8) & 0xff;
   80f48:	e0bffd17 	ldw	r2,-12(fp)
   80f4c:	10801117 	ldw	r2,68(r2)
   80f50:	1005d23a 	srai	r2,r2,8
   80f54:	10803fcc 	andi	r2,r2,255
   80f58:	e0bffe15 	stw	r2,-8(fp)
	if (reg_write(ec, 0x61, regv) != 0)
   80f5c:	e13fff17 	ldw	r4,-4(fp)
   80f60:	01401844 	movi	r5,97
   80f64:	e1bffe17 	ldw	r6,-8(fp)
   80f68:	008a6a00 	call	8a6a0 <reg_write>
   80f6c:	10000226 	beq	r2,zero,80f78 <adv7513_avi_infoframe+0x3dc>
		return -1;
   80f70:	00bfffc4 	movi	r2,-1
   80f74:	00000806 	br	80f98 <adv7513_avi_infoframe+0x3fc>

	// 0x4a[7] <- auto checksum
	// 0x4a[6] avi infoframe packet update 0)locked-by-packet_buffer 1)locked-by-i2c
	// 0x4a[5] audio infoframe packet update 0)locked-by-packet_buffer 1)locked-by-i2c
	// 0x4a[4] gc packet update 0)locked-by-packet_buffer 1)locked-by-i2c
	if (reg_clear_bits(ec, 0x4a, 0x40) != 0)
   80f78:	e13fff17 	ldw	r4,-4(fp)
   80f7c:	01401284 	movi	r5,74
   80f80:	01801004 	movi	r6,64
   80f84:	008a9580 	call	8a958 <reg_clear_bits>
   80f88:	10000226 	beq	r2,zero,80f94 <adv7513_avi_infoframe+0x3f8>
		return -1;
   80f8c:	00bfffc4 	movi	r2,-1
   80f90:	00000106 	br	80f98 <adv7513_avi_infoframe+0x3fc>

	return 0;
   80f94:	0005883a 	mov	r2,zero
}
   80f98:	e037883a 	mov	sp,fp
   80f9c:	dfc00117 	ldw	ra,4(sp)
   80fa0:	df000017 	ldw	fp,0(sp)
   80fa4:	dec00204 	addi	sp,sp,8
   80fa8:	f800283a 	ret

00080fac <adv7513_video_in_format_3d>:
// depth       - adv7513_input_color_depth
// color_space - adv7513_input_color_space
// style       - adv7513_input_style
// vic		   - adv7513_vic
static int adv7513_video_in_format_3d(struct hdmi_encoder *ec, int id, int depth, int color_space, int style, int vic)
{
   80fac:	defff804 	addi	sp,sp,-32
   80fb0:	dfc00715 	stw	ra,28(sp)
   80fb4:	df000615 	stw	fp,24(sp)
   80fb8:	df000604 	addi	fp,sp,24
   80fbc:	e13ffc15 	stw	r4,-16(fp)
   80fc0:	e17ffd15 	stw	r5,-12(fp)
   80fc4:	e1bffe15 	stw	r6,-8(fp)
   80fc8:	e1ffff15 	stw	r7,-4(fp)
   80fcc:	d83bb615 	stw	zero,-4392(sp)
	int aspect;

	//printf("adv7513_video_in_format_3d()\n");

	// 0x15[3:0] <- id
	if (reg_update_bits(ec, 0x15, 0x0f, id) != 0)
   80fd0:	e13ffc17 	ldw	r4,-16(fp)
   80fd4:	01400544 	movi	r5,21
   80fd8:	018003c4 	movi	r6,15
   80fdc:	e1fffd17 	ldw	r7,-12(fp)
   80fe0:	008a7300 	call	8a730 <reg_update_bits>
   80fe4:	10000226 	beq	r2,zero,80ff0 <adv7513_video_in_format_3d+0x44>
		return -1;
   80fe8:	00bfffc4 	movi	r2,-1
   80fec:	00004906 	br	81114 <adv7513_video_in_format_3d+0x168>

	// 0x16[5:4] <- depth
	// 0x16[3:2] <- style
	// 0x16[0] <- color_space
	regv = ((depth & 0x03) << 4) | ((style & 0x03) << 2) | (color_space & 0x01);
   80ff0:	e0bffe17 	ldw	r2,-8(fp)
   80ff4:	108000cc 	andi	r2,r2,3
   80ff8:	1006913a 	slli	r3,r2,4
   80ffc:	e0800217 	ldw	r2,8(fp)
   81000:	108000cc 	andi	r2,r2,3
   81004:	1085883a 	add	r2,r2,r2
   81008:	1085883a 	add	r2,r2,r2
   8100c:	1886b03a 	or	r3,r3,r2
   81010:	e0bfff17 	ldw	r2,-4(fp)
   81014:	1080004c 	andi	r2,r2,1
   81018:	1884b03a 	or	r2,r3,r2
   8101c:	e0bffb15 	stw	r2,-20(fp)
	if (reg_update_bits(ec, 0x16, 0x3d, regv) != 0)
   81020:	e13ffc17 	ldw	r4,-16(fp)
   81024:	01400584 	movi	r5,22
   81028:	01800f44 	movi	r6,61
   8102c:	e1fffb17 	ldw	r7,-20(fp)
   81030:	008a7300 	call	8a730 <reg_update_bits>
   81034:	10000226 	beq	r2,zero,81040 <adv7513_video_in_format_3d+0x94>
		return -1;
   81038:	00bfffc4 	movi	r2,-1
   8103c:	00003506 	br	81114 <adv7513_video_in_format_3d+0x168>

	switch (vic) {
   81040:	e0800317 	ldw	r2,12(fp)
   81044:	10800668 	cmpgeui	r2,r2,25
   81048:	1000261e 	bne	r2,zero,810e4 <adv7513_video_in_format_3d+0x138>
   8104c:	e0800317 	ldw	r2,12(fp)
   81050:	1085883a 	add	r2,r2,r2
   81054:	1087883a 	add	r3,r2,r2
   81058:	00800234 	movhi	r2,8
   8105c:	10841b04 	addi	r2,r2,4204
   81060:	1885883a 	add	r2,r3,r2
   81064:	10800017 	ldw	r2,0(r2)
   81068:	1000683a 	jmp	r2
   8106c:	000810e4 	muli	zero,zero,8259
   81070:	000810d0 	cmplti	zero,zero,8259
   81074:	000810d0 	cmplti	zero,zero,8259
   81078:	000810d8 	cmpnei	zero,zero,8259
   8107c:	000810d8 	cmpnei	zero,zero,8259
   81080:	000810d8 	cmpnei	zero,zero,8259
   81084:	000810d0 	cmplti	zero,zero,8259
   81088:	000810d8 	cmpnei	zero,zero,8259
   8108c:	000810d0 	cmplti	zero,zero,8259
   81090:	000810d8 	cmpnei	zero,zero,8259
   81094:	000810d0 	cmplti	zero,zero,8259
   81098:	000810d8 	cmpnei	zero,zero,8259
   8109c:	000810d0 	cmplti	zero,zero,8259
   810a0:	000810d8 	cmpnei	zero,zero,8259
   810a4:	000810d0 	cmplti	zero,zero,8259
   810a8:	000810d8 	cmpnei	zero,zero,8259
   810ac:	000810d8 	cmpnei	zero,zero,8259
   810b0:	000810d0 	cmplti	zero,zero,8259
   810b4:	000810d8 	cmpnei	zero,zero,8259
   810b8:	000810d8 	cmpnei	zero,zero,8259
   810bc:	000810d8 	cmpnei	zero,zero,8259
   810c0:	000810d0 	cmplti	zero,zero,8259
   810c4:	000810d8 	cmpnei	zero,zero,8259
   810c8:	000810d0 	cmplti	zero,zero,8259
   810cc:	000810d8 	cmpnei	zero,zero,8259
	case ADV7513_VIC_240p60x8_4_3:	// (2880)x240p 60Hz
	case ADV7513_VIC_480p60x2_4_3:	// 1440x480p 60Hz
	case ADV7513_VIC_576p50_4_3:	// 720x576p 50Hz
	case ADV7513_VIC_576i50x2_4_3:	// 720(1440)x576i 50Hz
	case ADV7513_VIC_288p50x2_4_3:	// 720(1440)x288p 50Hz
		aspect = ADV7513_INPUT_ASPECT_4V3;
   810d0:	e03ffa15 	stw	zero,-24(fp)
		break;
   810d4:	00000306 	br	810e4 <adv7513_video_in_format_3d+0x138>
	case ADV7513_VIC_576p50_16_9:	// 720x576p 50Hz
	case ADV7513_VIC_720p50_16_9:	// 1280x720p 50Hz
	case ADV7513_VIC_1080i50_16_9:	// 1920x1080i 50Hz
	case ADV7513_VIC_576i50x2_16_9:	// 720(1440)x576i 50Hz
	case ADV7513_VIC_288p50x2_16_9:	// 720(1440)x288p 50Hz
		aspect = ADV7513_INPUT_ASPECT_16V9;
   810d8:	00800044 	movi	r2,1
   810dc:	e0bffa15 	stw	r2,-24(fp)
		break;
   810e0:	0001883a 	nop
	}

	// 0x17[1] <- aspect
	if (reg_update_bits(ec, 0x17, 0x02, (aspect & 0x01) << 1) != 0)
   810e4:	e0bffa17 	ldw	r2,-24(fp)
   810e8:	1080004c 	andi	r2,r2,1
   810ec:	1085883a 	add	r2,r2,r2
   810f0:	e13ffc17 	ldw	r4,-16(fp)
   810f4:	014005c4 	movi	r5,23
   810f8:	01800084 	movi	r6,2
   810fc:	100f883a 	mov	r7,r2
   81100:	008a7300 	call	8a730 <reg_update_bits>
   81104:	10000226 	beq	r2,zero,81110 <adv7513_video_in_format_3d+0x164>
		return -1;
   81108:	00bfffc4 	movi	r2,-1
   8110c:	00000106 	br	81114 <adv7513_video_in_format_3d+0x168>

	return 0;
   81110:	0005883a 	mov	r2,zero
}
   81114:	e037883a 	mov	sp,fp
   81118:	dfc00117 	ldw	ra,4(sp)
   8111c:	df000017 	ldw	fp,0(sp)
   81120:	dec00204 	addi	sp,sp,8
   81124:	f800283a 	ret

00081128 <adv7513_avi_infoframe_3d>:
//
// vic		   - adv7513_vic
//
// 0x52 ~ 0x71
static int adv7513_avi_infoframe_3d(struct hdmi_encoder *ec, int vic)
{
   81128:	defffa04 	addi	sp,sp,-24
   8112c:	dfc00515 	stw	ra,20(sp)
   81130:	df000415 	stw	fp,16(sp)
   81134:	df000404 	addi	fp,sp,16
   81138:	e13ffe15 	stw	r4,-8(fp)
   8113c:	e17fff15 	stw	r5,-4(fp)
   81140:	d83bb615 	stw	zero,-4392(sp)
	struct avi_infoframe *avi = &ec->avi_if;
   81144:	e0bffe17 	ldw	r2,-8(fp)
   81148:	10800904 	addi	r2,r2,36
   8114c:	e0bffc15 	stw	r2,-16(fp)
	int regv;

	//printf("adv7513_avi_infoframe_3d()\n");

#if 1  // local development defaults
	avi->scan_info = 2;  		// scan
   81150:	e0bffc17 	ldw	r2,-16(fp)
   81154:	00c00084 	movi	r3,2
   81158:	10c00015 	stw	r3,0(r2)
	avi->rgb_ycbcr = 0;			// rgb or ycbcr
   8115c:	e0bffc17 	ldw	r2,-16(fp)
   81160:	10000315 	stw	zero,12(r2)
	//avi->f7 = 0;				// reserved
	avi->active_fmt = 1;		// active format r3r0 valid
   81164:	e0bffc17 	ldw	r2,-16(fp)
   81168:	00c00044 	movi	r3,1
   8116c:	10c00215 	stw	r3,8(r2)

	avi->colorimetry = 0;		// colorimetry
   81170:	e0bffc17 	ldw	r2,-16(fp)
   81174:	10000615 	stw	zero,24(r2)
	avi->colorimetry_ext = 0;	// extended colorimetry
   81178:	e0bffc17 	ldw	r2,-16(fp)
   8117c:	10000915 	stw	zero,36(r2)
	avi->scaling = 0;			// non-uniform scaling
   81180:	e0bffc17 	ldw	r2,-16(fp)
   81184:	10000715 	stw	zero,28(r2)
	avi->quant = 0;				// rgb quantization range
   81188:	e0bffc17 	ldw	r2,-16(fp)
   8118c:	10000815 	stw	zero,32(r2)
	avi->itc = 0;				// it content
   81190:	e0bffc17 	ldw	r2,-16(fp)
   81194:	10000a15 	stw	zero,40(r2)
	avi->pr = 1;				// pixel repetition factor 0)no 1)2x 2)3x 3)4x ...
   81198:	e0bffc17 	ldw	r2,-16(fp)
   8119c:	00c00044 	movi	r3,1
   811a0:	10c00c15 	stw	r3,48(r2)
	avi->vic = vic;				// video identification code
   811a4:	e0bffc17 	ldw	r2,-16(fp)
   811a8:	e0ffff17 	ldw	r3,-4(fp)
   811ac:	10c00b15 	stw	r3,44(r2)
	avi->yq1yq0 = 0;			// ??
   811b0:	e0bffc17 	ldw	r2,-16(fp)
   811b4:	10000d15 	stw	zero,52(r2)

	avi->bar_info = 0;  		// bar fields valid
   811b8:	e0bffc17 	ldw	r2,-16(fp)
   811bc:	10000115 	stw	zero,4(r2)
	avi->bar.top_e = 0;
   811c0:	e0bffc17 	ldw	r2,-16(fp)
   811c4:	10000e15 	stw	zero,56(r2)
	avi->bar.bottom_s = 0;
   811c8:	e0bffc17 	ldw	r2,-16(fp)
   811cc:	10000f15 	stw	zero,60(r2)
	avi->bar.left_e = 0;
   811d0:	e0bffc17 	ldw	r2,-16(fp)
   811d4:	10001015 	stw	zero,64(r2)
	avi->bar.right_s = 0;
   811d8:	e0bffc17 	ldw	r2,-16(fp)
   811dc:	10001115 	stw	zero,68(r2)

	avi->active_fmt_ar = 8;		// active format aspect ratio (same as pict_ar)
   811e0:	e0bffc17 	ldw	r2,-16(fp)
   811e4:	00c00204 	movi	r3,8
   811e8:	10c00415 	stw	r3,16(r2)

	switch (vic) {
   811ec:	e0bfff17 	ldw	r2,-4(fp)
   811f0:	10800668 	cmpgeui	r2,r2,25
   811f4:	1000291e 	bne	r2,zero,8129c <adv7513_avi_infoframe_3d+0x174>
   811f8:	e0bfff17 	ldw	r2,-4(fp)
   811fc:	1085883a 	add	r2,r2,r2
   81200:	1087883a 	add	r3,r2,r2
   81204:	00800234 	movhi	r2,8
   81208:	10848604 	addi	r2,r2,4632
   8120c:	1885883a 	add	r2,r3,r2
   81210:	10800017 	ldw	r2,0(r2)
   81214:	1000683a 	jmp	r2
   81218:	0008129c 	xori	zero,zero,8266
   8121c:	0008127c 	xorhi	zero,zero,8265
   81220:	0008127c 	xorhi	zero,zero,8265
   81224:	0008128c 	andi	zero,zero,8266
   81228:	0008128c 	andi	zero,zero,8266
   8122c:	0008128c 	andi	zero,zero,8266
   81230:	0008127c 	xorhi	zero,zero,8265
   81234:	0008128c 	andi	zero,zero,8266
   81238:	0008127c 	xorhi	zero,zero,8265
   8123c:	0008128c 	andi	zero,zero,8266
   81240:	0008127c 	xorhi	zero,zero,8265
   81244:	0008128c 	andi	zero,zero,8266
   81248:	0008127c 	xorhi	zero,zero,8265
   8124c:	0008128c 	andi	zero,zero,8266
   81250:	0008127c 	xorhi	zero,zero,8265
   81254:	0008128c 	andi	zero,zero,8266
   81258:	0008128c 	andi	zero,zero,8266
   8125c:	0008127c 	xorhi	zero,zero,8265
   81260:	0008128c 	andi	zero,zero,8266
   81264:	0008128c 	andi	zero,zero,8266
   81268:	0008128c 	andi	zero,zero,8266
   8126c:	0008127c 	xorhi	zero,zero,8265
   81270:	0008128c 	andi	zero,zero,8266
   81274:	0008127c 	xorhi	zero,zero,8265
   81278:	0008128c 	andi	zero,zero,8266
	case ADV7513_VIC_240p60x8_4_3:	// (2880)x240p 60Hz
	case ADV7513_VIC_480p60x2_4_3:	// 1440x480p 60Hz
	case ADV7513_VIC_576p50_4_3:	// 720x576p 50Hz
	case ADV7513_VIC_576i50x2_4_3:	// 720(1440)x576i 50Hz
	case ADV7513_VIC_288p50x2_4_3:	// 720(1440)x288p 50Hz
		avi->pict_ar = 1;			// picture aspect ratio (4:3)
   8127c:	e0bffc17 	ldw	r2,-16(fp)
   81280:	00c00044 	movi	r3,1
   81284:	10c00515 	stw	r3,20(r2)
		break;
   81288:	00000406 	br	8129c <adv7513_avi_infoframe_3d+0x174>
	case ADV7513_VIC_576p50_16_9:	// 720x576p 50Hz
	case ADV7513_VIC_720p50_16_9:	// 1280x720p 50Hz
	case ADV7513_VIC_1080i50_16_9:	// 1920x1080i 50Hz
	case ADV7513_VIC_576i50x2_16_9:	// 720(1440)x576i 50Hz
	case ADV7513_VIC_288p50x2_16_9:	// 720(1440)x288p 50Hz
		avi->pict_ar = 2;			// picture aspect ratio (16:9)
   8128c:	e0bffc17 	ldw	r2,-16(fp)
   81290:	00c00084 	movi	r3,2
   81294:	10c00515 	stw	r3,20(r2)
		break;
   81298:	0001883a 	nop
	//   0x55[6:5]
	//   0x56[5:4]

	// 0x44[4] avi infoframe enable 0)disable 1)enable
	// 0x44[3] audio infoframe enable 0)disable 1)enable
	if (reg_update_bits(ec, 0x44, 0x10, 1 << 4) != 0)
   8129c:	e13ffe17 	ldw	r4,-8(fp)
   812a0:	01401104 	movi	r5,68
   812a4:	01800404 	movi	r6,16
   812a8:	01c00404 	movi	r7,16
   812ac:	008a7300 	call	8a730 <reg_update_bits>
   812b0:	10000226 	beq	r2,zero,812bc <adv7513_avi_infoframe_3d+0x194>
		return -1;
   812b4:	00bfffc4 	movi	r2,-1
   812b8:	0000c406 	br	815cc <adv7513_avi_infoframe_3d+0x4a4>

	// 0x4a[7] <- auto checksum
	// 0x4a[6] avi infoframe packet update 0)locked-by-packet_buffer 1)locked-by-i2c
	// 0x4a[5] audio infoframe packet update 0)locked-by-packet_buffer 1)locked-by-i2c
	// 0x4a[4] gc packet update 0)locked-by-packet_buffer 1)locked-by-i2c
	if (reg_update_bits(ec, 0x4a, 0xc0, 3 << 6) != 0)
   812bc:	e13ffe17 	ldw	r4,-8(fp)
   812c0:	01401284 	movi	r5,74
   812c4:	01803004 	movi	r6,192
   812c8:	01c03004 	movi	r7,192
   812cc:	008a7300 	call	8a730 <reg_update_bits>
   812d0:	10000226 	beq	r2,zero,812dc <adv7513_avi_infoframe_3d+0x1b4>
		return -1;
   812d4:	00bfffc4 	movi	r2,-1
   812d8:	0000bc06 	br	815cc <adv7513_avi_infoframe_3d+0x4a4>

	// 0x55[6:5] <- output format 0)rgb 1)ycbcr422 2)ycbcr444
	// 0x55[4]   <- active format indicator 0)no-data 1)valid (bar, scan, colorimetry, non-uniform-scaling, active-aspect-ratio)
	// 0x55[3:2] <- bar 0)invalid-bar 1)vertical 2)horizontal 3)both
	// 0x55[1:0] <- scan 0)no-data 1)tv 2)pc 3)none
	regv = ((avi->rgb_ycbcr & 0x03) << 5) | ((avi->active_fmt & 0x01) << 4) | ((avi->bar_info & 0x03) << 2) | ((avi->scan_info & 0x03) << 0);
   812dc:	e0bffc17 	ldw	r2,-16(fp)
   812e0:	10800317 	ldw	r2,12(r2)
   812e4:	108000cc 	andi	r2,r2,3
   812e8:	1006917a 	slli	r3,r2,5
   812ec:	e0bffc17 	ldw	r2,-16(fp)
   812f0:	10800217 	ldw	r2,8(r2)
   812f4:	1080004c 	andi	r2,r2,1
   812f8:	1004913a 	slli	r2,r2,4
   812fc:	1886b03a 	or	r3,r3,r2
   81300:	e0bffc17 	ldw	r2,-16(fp)
   81304:	10800117 	ldw	r2,4(r2)
   81308:	108000cc 	andi	r2,r2,3
   8130c:	1085883a 	add	r2,r2,r2
   81310:	1085883a 	add	r2,r2,r2
   81314:	1886b03a 	or	r3,r3,r2
   81318:	e0bffc17 	ldw	r2,-16(fp)
   8131c:	10800017 	ldw	r2,0(r2)
   81320:	108000cc 	andi	r2,r2,3
   81324:	1884b03a 	or	r2,r3,r2
   81328:	e0bffd15 	stw	r2,-12(fp)
	if (reg_update_bits(ec, 0x55, 0x70, regv) != 0)
   8132c:	e13ffe17 	ldw	r4,-8(fp)
   81330:	01401544 	movi	r5,85
   81334:	01801c04 	movi	r6,112
   81338:	e1fffd17 	ldw	r7,-12(fp)
   8133c:	008a7300 	call	8a730 <reg_update_bits>
   81340:	10000226 	beq	r2,zero,8134c <adv7513_avi_infoframe_3d+0x224>
		return -1;
   81344:	00bfffc4 	movi	r2,-1
   81348:	0000a006 	br	815cc <adv7513_avi_infoframe_3d+0x4a4>

	// 0x56[7:6] <- colorimetry 0)no-data 1)ITU601 2)ITU709 3)extended <- 0x57[6:4]
	// 0x56[5:4] <- picture aspect ratio 0)no-data 1)4:3 2)16:9 3)none
	// 0x56[3:0] <- active aspect ratio 8)same as 0x56[5:4] 9)4:3 10)16:0 11)14:9
	regv = ((avi->colorimetry & 0x03) << 6) | ((avi->pict_ar & 0x03) << 4) | ((avi->active_fmt_ar & 0x0f) << 0);
   8134c:	e0bffc17 	ldw	r2,-16(fp)
   81350:	10800617 	ldw	r2,24(r2)
   81354:	100491ba 	slli	r2,r2,6
   81358:	10c03fcc 	andi	r3,r2,255
   8135c:	e0bffc17 	ldw	r2,-16(fp)
   81360:	10800517 	ldw	r2,20(r2)
   81364:	108000cc 	andi	r2,r2,3
   81368:	1004913a 	slli	r2,r2,4
   8136c:	1886b03a 	or	r3,r3,r2
   81370:	e0bffc17 	ldw	r2,-16(fp)
   81374:	10800417 	ldw	r2,16(r2)
   81378:	108003cc 	andi	r2,r2,15
   8137c:	1884b03a 	or	r2,r3,r2
   81380:	e0bffd15 	stw	r2,-12(fp)
	if (reg_write(ec, 0x56, regv) != 0)
   81384:	e13ffe17 	ldw	r4,-8(fp)
   81388:	01401584 	movi	r5,86
   8138c:	e1bffd17 	ldw	r6,-12(fp)
   81390:	008a6a00 	call	8a6a0 <reg_write>
   81394:	10000226 	beq	r2,zero,813a0 <adv7513_avi_infoframe_3d+0x278>
		return -1;
   81398:	00bfffc4 	movi	r2,-1
   8139c:	00008b06 	br	815cc <adv7513_avi_infoframe_3d+0x4a4>

	// 0x57[7] <- itc 0)none 1)available in 0x59[5:4]
	// 0x57[6:4] <- extended colorimetry 0)xvYCC601 1)xvYCC701 2)sYCC601 3)AdobeYCC601 4)AdobeRGB
	// 0x57[3:2] <- rgb quantization range 0)default 1)limited 2)full 11)reserved
	// 0x57[1:0] <- non-uniform picture scaling 0)unknown 1)h-scaling 2) v-scaling 3)h/v scaling
	regv = ((avi->itc & 0x01) << 7) | ((avi->colorimetry_ext & 0x07) << 4) | ((avi->quant & 0x03) << 2) | ((avi->scaling & 0x03) << 0);
   813a0:	e0bffc17 	ldw	r2,-16(fp)
   813a4:	10800a17 	ldw	r2,40(r2)
   813a8:	100491fa 	slli	r2,r2,7
   813ac:	10c03fcc 	andi	r3,r2,255
   813b0:	e0bffc17 	ldw	r2,-16(fp)
   813b4:	10800917 	ldw	r2,36(r2)
   813b8:	108001cc 	andi	r2,r2,7
   813bc:	1004913a 	slli	r2,r2,4
   813c0:	1886b03a 	or	r3,r3,r2
   813c4:	e0bffc17 	ldw	r2,-16(fp)
   813c8:	10800817 	ldw	r2,32(r2)
   813cc:	108000cc 	andi	r2,r2,3
   813d0:	1085883a 	add	r2,r2,r2
   813d4:	1085883a 	add	r2,r2,r2
   813d8:	1886b03a 	or	r3,r3,r2
   813dc:	e0bffc17 	ldw	r2,-16(fp)
   813e0:	10800717 	ldw	r2,28(r2)
   813e4:	108000cc 	andi	r2,r2,3
   813e8:	1884b03a 	or	r2,r3,r2
   813ec:	e0bffd15 	stw	r2,-12(fp)
	if (reg_write(ec, 0x57, regv) != 0)
   813f0:	e13ffe17 	ldw	r4,-8(fp)
   813f4:	014015c4 	movi	r5,87
   813f8:	e1bffd17 	ldw	r6,-12(fp)
   813fc:	008a6a00 	call	8a6a0 <reg_write>
   81400:	10000226 	beq	r2,zero,8140c <adv7513_avi_infoframe_3d+0x2e4>
		return -1;
   81404:	00bfffc4 	movi	r2,-1
   81408:	00007006 	br	815cc <adv7513_avi_infoframe_3d+0x4a4>

	// 0x59[7:4] <- extended colorimetry 0)xvYCC601 1)xvYCC701 2)sYCC601 3)AdobeYCC601 4)AdobeRGB
	regv = ((avi->yq1yq0 & 0x0f) << 4);
   8140c:	e0bffc17 	ldw	r2,-16(fp)
   81410:	10800d17 	ldw	r2,52(r2)
   81414:	1004913a 	slli	r2,r2,4
   81418:	10803fcc 	andi	r2,r2,255
   8141c:	e0bffd15 	stw	r2,-12(fp)
	if (reg_write(ec, 0x59, regv) != 0)
   81420:	e13ffe17 	ldw	r4,-8(fp)
   81424:	01401644 	movi	r5,89
   81428:	e1bffd17 	ldw	r6,-12(fp)
   8142c:	008a6a00 	call	8a6a0 <reg_write>
   81430:	10000226 	beq	r2,zero,8143c <adv7513_avi_infoframe_3d+0x314>
		return -1;
   81434:	00bfffc4 	movi	r2,-1
   81438:	00006406 	br	815cc <adv7513_avi_infoframe_3d+0x4a4>

	// 0x5a[7:0] <- active line (bar)
	regv = avi->bar.top_e & 0xff;
   8143c:	e0bffc17 	ldw	r2,-16(fp)
   81440:	10800e17 	ldw	r2,56(r2)
   81444:	10803fcc 	andi	r2,r2,255
   81448:	e0bffd15 	stw	r2,-12(fp)
	if (reg_write(ec, 0x5a, regv) != 0)
   8144c:	e13ffe17 	ldw	r4,-8(fp)
   81450:	01401684 	movi	r5,90
   81454:	e1bffd17 	ldw	r6,-12(fp)
   81458:	008a6a00 	call	8a6a0 <reg_write>
   8145c:	10000226 	beq	r2,zero,81468 <adv7513_avi_infoframe_3d+0x340>
		return -1;
   81460:	00bfffc4 	movi	r2,-1
   81464:	00005906 	br	815cc <adv7513_avi_infoframe_3d+0x4a4>

	// 0x5b[7:0] <- active line (bar)
	regv = (avi->bar.top_e >> 8) & 0xff;
   81468:	e0bffc17 	ldw	r2,-16(fp)
   8146c:	10800e17 	ldw	r2,56(r2)
   81470:	1005d23a 	srai	r2,r2,8
   81474:	10803fcc 	andi	r2,r2,255
   81478:	e0bffd15 	stw	r2,-12(fp)
	if (reg_write(ec, 0x5b, regv) != 0)
   8147c:	e13ffe17 	ldw	r4,-8(fp)
   81480:	014016c4 	movi	r5,91
   81484:	e1bffd17 	ldw	r6,-12(fp)
   81488:	008a6a00 	call	8a6a0 <reg_write>
   8148c:	10000226 	beq	r2,zero,81498 <adv7513_avi_infoframe_3d+0x370>
		return -1;
   81490:	00bfffc4 	movi	r2,-1
   81494:	00004d06 	br	815cc <adv7513_avi_infoframe_3d+0x4a4>

	// 0x5c[7:0] <- active line (bar)
	regv = avi->bar.bottom_s & 0xff;
   81498:	e0bffc17 	ldw	r2,-16(fp)
   8149c:	10800f17 	ldw	r2,60(r2)
   814a0:	10803fcc 	andi	r2,r2,255
   814a4:	e0bffd15 	stw	r2,-12(fp)
	if (reg_write(ec, 0x5c, regv) != 0)
   814a8:	e13ffe17 	ldw	r4,-8(fp)
   814ac:	01401704 	movi	r5,92
   814b0:	e1bffd17 	ldw	r6,-12(fp)
   814b4:	008a6a00 	call	8a6a0 <reg_write>
   814b8:	10000226 	beq	r2,zero,814c4 <adv7513_avi_infoframe_3d+0x39c>
		return -1;
   814bc:	00bfffc4 	movi	r2,-1
   814c0:	00004206 	br	815cc <adv7513_avi_infoframe_3d+0x4a4>

	// 0x5d[7:0] <- active line (bar)
	regv = (avi->bar.bottom_s >> 8) & 0xff;
   814c4:	e0bffc17 	ldw	r2,-16(fp)
   814c8:	10800f17 	ldw	r2,60(r2)
   814cc:	1005d23a 	srai	r2,r2,8
   814d0:	10803fcc 	andi	r2,r2,255
   814d4:	e0bffd15 	stw	r2,-12(fp)
	if (reg_write(ec, 0x5d, regv) != 0)
   814d8:	e13ffe17 	ldw	r4,-8(fp)
   814dc:	01401744 	movi	r5,93
   814e0:	e1bffd17 	ldw	r6,-12(fp)
   814e4:	008a6a00 	call	8a6a0 <reg_write>
   814e8:	10000226 	beq	r2,zero,814f4 <adv7513_avi_infoframe_3d+0x3cc>
		return -1;
   814ec:	00bfffc4 	movi	r2,-1
   814f0:	00003606 	br	815cc <adv7513_avi_infoframe_3d+0x4a4>

	// 0x5e[7:0] <- active line (bar)
	regv = avi->bar.left_e & 0xff;
   814f4:	e0bffc17 	ldw	r2,-16(fp)
   814f8:	10801017 	ldw	r2,64(r2)
   814fc:	10803fcc 	andi	r2,r2,255
   81500:	e0bffd15 	stw	r2,-12(fp)
	if (reg_write(ec, 0x5e, regv) != 0)
   81504:	e13ffe17 	ldw	r4,-8(fp)
   81508:	01401784 	movi	r5,94
   8150c:	e1bffd17 	ldw	r6,-12(fp)
   81510:	008a6a00 	call	8a6a0 <reg_write>
   81514:	10000226 	beq	r2,zero,81520 <adv7513_avi_infoframe_3d+0x3f8>
		return -1;
   81518:	00bfffc4 	movi	r2,-1
   8151c:	00002b06 	br	815cc <adv7513_avi_infoframe_3d+0x4a4>

	// 0x5f[7:0] <- active line (bar)
	regv = (avi->bar.left_e >> 8) & 0xff;
   81520:	e0bffc17 	ldw	r2,-16(fp)
   81524:	10801017 	ldw	r2,64(r2)
   81528:	1005d23a 	srai	r2,r2,8
   8152c:	10803fcc 	andi	r2,r2,255
   81530:	e0bffd15 	stw	r2,-12(fp)
	if (reg_write(ec, 0x5f, regv) != 0)
   81534:	e13ffe17 	ldw	r4,-8(fp)
   81538:	014017c4 	movi	r5,95
   8153c:	e1bffd17 	ldw	r6,-12(fp)
   81540:	008a6a00 	call	8a6a0 <reg_write>
   81544:	10000226 	beq	r2,zero,81550 <adv7513_avi_infoframe_3d+0x428>
		return -1;
   81548:	00bfffc4 	movi	r2,-1
   8154c:	00001f06 	br	815cc <adv7513_avi_infoframe_3d+0x4a4>

	// 0x60[7:0] <- active line (bar)
	regv = avi->bar.right_s & 0xff;
   81550:	e0bffc17 	ldw	r2,-16(fp)
   81554:	10801117 	ldw	r2,68(r2)
   81558:	10803fcc 	andi	r2,r2,255
   8155c:	e0bffd15 	stw	r2,-12(fp)
	if (reg_write(ec, 0x60, regv) != 0)
   81560:	e13ffe17 	ldw	r4,-8(fp)
   81564:	01401804 	movi	r5,96
   81568:	e1bffd17 	ldw	r6,-12(fp)
   8156c:	008a6a00 	call	8a6a0 <reg_write>
   81570:	10000226 	beq	r2,zero,8157c <adv7513_avi_infoframe_3d+0x454>
		return -1;
   81574:	00bfffc4 	movi	r2,-1
   81578:	00001406 	br	815cc <adv7513_avi_infoframe_3d+0x4a4>

	// 0x61[7:0] <- active line (bar)
	regv = (avi->bar.right_s >> 8) & 0xff;
   8157c:	e0bffc17 	ldw	r2,-16(fp)
   81580:	10801117 	ldw	r2,68(r2)
   81584:	1005d23a 	srai	r2,r2,8
   81588:	10803fcc 	andi	r2,r2,255
   8158c:	e0bffd15 	stw	r2,-12(fp)
	if (reg_write(ec, 0x61, regv) != 0)
   81590:	e13ffe17 	ldw	r4,-8(fp)
   81594:	01401844 	movi	r5,97
   81598:	e1bffd17 	ldw	r6,-12(fp)
   8159c:	008a6a00 	call	8a6a0 <reg_write>
   815a0:	10000226 	beq	r2,zero,815ac <adv7513_avi_infoframe_3d+0x484>
		return -1;
   815a4:	00bfffc4 	movi	r2,-1
   815a8:	00000806 	br	815cc <adv7513_avi_infoframe_3d+0x4a4>

	// 0x4a[7] <- auto checksum
	// 0x4a[6] avi infoframe packet update 0)locked-by-packet_buffer 1)locked-by-i2c
	// 0x4a[5] audio infoframe packet update 0)locked-by-packet_buffer 1)locked-by-i2c
	// 0x4a[4] gc packet update 0)locked-by-packet_buffer 1)locked-by-i2c
	if (reg_clear_bits(ec, 0x4a, 0x40) != 0)
   815ac:	e13ffe17 	ldw	r4,-8(fp)
   815b0:	01401284 	movi	r5,74
   815b4:	01801004 	movi	r6,64
   815b8:	008a9580 	call	8a958 <reg_clear_bits>
   815bc:	10000226 	beq	r2,zero,815c8 <adv7513_avi_infoframe_3d+0x4a0>
		return -1;
   815c0:	00bfffc4 	movi	r2,-1
   815c4:	00000106 	br	815cc <adv7513_avi_infoframe_3d+0x4a4>

	return 0;
   815c8:	0005883a 	mov	r2,zero
}
   815cc:	e037883a 	mov	sp,fp
   815d0:	dfc00117 	ldw	ra,4(sp)
   815d4:	df000017 	ldw	fp,0(sp)
   815d8:	dec00204 	addi	sp,sp,8
   815dc:	f800283a 	ret

000815e0 <adv7513_vendor_infoframe_3d>:
//
// vic		   - adv7513_vic
//
// 0x52 ~ 0x71
static int adv7513_vendor_infoframe_3d(struct hdmi_encoder *ec, int vic)
{
   815e0:	defffc04 	addi	sp,sp,-16
   815e4:	df000315 	stw	fp,12(sp)
   815e8:	df000304 	addi	fp,sp,12
   815ec:	e13ffe15 	stw	r4,-8(fp)
   815f0:	e17fff15 	stw	r5,-4(fp)
	struct vendor_infoframe *vsi = &ec->vendor_if;
   815f4:	e0bffe17 	ldw	r2,-8(fp)
   815f8:	10801b04 	addi	r2,r2,108
   815fc:	e0bffd15 	stw	r2,-12(fp)
	int regv;

	//printf("adv7513_vendor_infoframe_3d()\n");

#if 1  // local development defaults
	vsi->struct_3d = 8;		// 0)frame_packing 6)top-bottom 8)side-by-side
   81600:	e0bffd17 	ldw	r2,-12(fp)
   81604:	00c00204 	movi	r3,8
   81608:	10c00015 	stw	r3,0(r2)
	vsi->ext_data_3d = 1;	// valid for side-by-side 0b0000 ~ 0b0011
   8160c:	e0bffd17 	ldw	r2,-12(fp)
   81610:	00c00044 	movi	r3,1
   81614:	10c00115 	stw	r3,4(r2)

#endif


	return 0;
   81618:	0005883a 	mov	r2,zero
}
   8161c:	e037883a 	mov	sp,fp
   81620:	df000017 	ldw	fp,0(sp)
   81624:	dec00104 	addi	sp,sp,4
   81628:	f800283a 	ret

0008162c <adv7513_video_out_format_3d>:
// out video format
//
// format   - adv7513_output_format
// vic		- adv7513_vic
static int adv7513_video_out_format_3d(struct hdmi_encoder *ec, int format, int vic)
{
   8162c:	defffa04 	addi	sp,sp,-24
   81630:	dfc00515 	stw	ra,20(sp)
   81634:	df000415 	stw	fp,16(sp)
   81638:	df000404 	addi	fp,sp,16
   8163c:	e13ffd15 	stw	r4,-12(fp)
   81640:	e17ffe15 	stw	r5,-8(fp)
   81644:	e1bfff15 	stw	r6,-4(fp)
   81648:	d83bb615 	stw	zero,-4392(sp)
	int regv;

	//printf("adv7513_video_out_format_3d()\n");

	// 0x16[7] <- format
	regv = (format & 0x01) << 7;
   8164c:	e0bffe17 	ldw	r2,-8(fp)
   81650:	100491fa 	slli	r2,r2,7
   81654:	10803fcc 	andi	r2,r2,255
   81658:	e0bffc15 	stw	r2,-16(fp)
	if (reg_update_bits(ec, 0x16, 0x80, regv) != 0)
   8165c:	e13ffd17 	ldw	r4,-12(fp)
   81660:	01400584 	movi	r5,22
   81664:	01802004 	movi	r6,128
   81668:	e1fffc17 	ldw	r7,-16(fp)
   8166c:	008a7300 	call	8a730 <reg_update_bits>
   81670:	10000226 	beq	r2,zero,8167c <adv7513_video_out_format_3d+0x50>
		return -1;
   81674:	00bfffc4 	movi	r2,-1
   81678:	00003006 	br	8173c <adv7513_video_out_format_3d+0x110>

	// 0x18 ~ 0x2f
	if (adv7513_config_csc(ec, 0, 0) != 0) {
   8167c:	e13ffd17 	ldw	r4,-12(fp)
   81680:	000b883a 	mov	r5,zero
   81684:	000d883a 	mov	r6,zero
   81688:	008093c0 	call	8093c <adv7513_config_csc>
   8168c:	10000226 	beq	r2,zero,81698 <adv7513_video_out_format_3d+0x6c>
		return -1;
   81690:	00bfffc4 	movi	r2,-1
   81694:	00002906 	br	8173c <adv7513_video_out_format_3d+0x110>
	}

	// 0xaf[7] <- hdcp (enable/disable)
	// 0xaf[1] <- 0)dvi 1)hdmi (section 4.2.2)
	if (reg_update_bits(ec, 0xaf, 0x82, (1 & 0x01) << 1) != 0)
   81698:	e13ffd17 	ldw	r4,-12(fp)
   8169c:	01402bc4 	movi	r5,175
   816a0:	01802084 	movi	r6,130
   816a4:	01c00084 	movi	r7,2
   816a8:	008a7300 	call	8a730 <reg_update_bits>
   816ac:	10000226 	beq	r2,zero,816b8 <adv7513_video_out_format_3d+0x8c>
		return -1;
   816b0:	00bfffc4 	movi	r2,-1
   816b4:	00002106 	br	8173c <adv7513_video_out_format_3d+0x110>

	// general control packet
	// 0x40[7] <- gc (section 4.2.3 && 4.3.3)
	if (reg_update_bits(ec, 0x40, 0x80, (1 & 0x01) << 7) != 0)
   816b8:	e13ffd17 	ldw	r4,-12(fp)
   816bc:	01401004 	movi	r5,64
   816c0:	01802004 	movi	r6,128
   816c4:	01c02004 	movi	r7,128
   816c8:	008a7300 	call	8a730 <reg_update_bits>
   816cc:	10000226 	beq	r2,zero,816d8 <adv7513_video_out_format_3d+0xac>
		return -1;
   816d0:	00bfffc4 	movi	r2,-1
   816d4:	00001906 	br	8173c <adv7513_video_out_format_3d+0x110>

	// 0x4c[3:0] <- gc_depth (section 4.2.6)
	if (reg_update_bits(ec, 0x4c, 0x0f, 4 & 0x0f) != 0)
   816d8:	e13ffd17 	ldw	r4,-12(fp)
   816dc:	01401304 	movi	r5,76
   816e0:	018003c4 	movi	r6,15
   816e4:	01c00104 	movi	r7,4
   816e8:	008a7300 	call	8a730 <reg_update_bits>
   816ec:	10000226 	beq	r2,zero,816f8 <adv7513_video_out_format_3d+0xcc>
		return -1;
   816f0:	00bfffc4 	movi	r2,-1
   816f4:	00001106 	br	8173c <adv7513_video_out_format_3d+0x110>

	// pixel repetition
	// 0x3b[6:5] <- pr mode 0)auto 1)max 2)manual 3)manual
	// 0x3b[4:3] <- pr pll (x input) 0)x1 1)x2 2)x4 3)x4
	// 0x3b[2:1] <- pr pll (sent) 0)x1 1)x2 2)x4 3)x4
	if (reg_update_bits(ec, 0x3b, 0x7e, (2 << 5) | (0 << 3) | (0 << 1)) != 0)
   816f8:	e13ffd17 	ldw	r4,-12(fp)
   816fc:	01400ec4 	movi	r5,59
   81700:	01801f84 	movi	r6,126
   81704:	01c01004 	movi	r7,64
   81708:	008a7300 	call	8a730 <reg_update_bits>
   8170c:	10000226 	beq	r2,zero,81718 <adv7513_video_out_format_3d+0xec>
		return -1;
   81710:	00bfffc4 	movi	r2,-1
   81714:	00000906 	br	8173c <adv7513_video_out_format_3d+0x110>

	// manual VIC
	// 0x3c[5:0] <- 0x01 & 0x3f
	if (reg_update_bits(ec, 0x3c, 0x3f, vic) != 0)
   81718:	e13ffd17 	ldw	r4,-12(fp)
   8171c:	01400f04 	movi	r5,60
   81720:	01800fc4 	movi	r6,63
   81724:	e1ffff17 	ldw	r7,-4(fp)
   81728:	008a7300 	call	8a730 <reg_update_bits>
   8172c:	10000226 	beq	r2,zero,81738 <adv7513_video_out_format_3d+0x10c>
		return -1;
   81730:	00bfffc4 	movi	r2,-1
   81734:	00000106 	br	8173c <adv7513_video_out_format_3d+0x110>

	return 0;
   81738:	0005883a 	mov	r2,zero
}
   8173c:	e037883a 	mov	sp,fp
   81740:	dfc00117 	ldw	ra,4(sp)
   81744:	df000017 	ldw	fp,0(sp)
   81748:	dec00204 	addi	sp,sp,8
   8174c:	f800283a 	ret

00081750 <adv7513_video_init>:
	return 0;
}
#endif

static int adv7513_video_init(struct hdmi_encoder *ec, int dvi)
{
   81750:	defffa04 	addi	sp,sp,-24
   81754:	dfc00515 	stw	ra,20(sp)
   81758:	df000415 	stw	fp,16(sp)
   8175c:	df000404 	addi	fp,sp,16
   81760:	e13ffe15 	stw	r4,-8(fp)
   81764:	e17fff15 	stw	r5,-4(fp)
   81768:	d83bb615 	stw	zero,-4392(sp)
	//	if (adv7513_video_misc_config(ec) != 0)
	//		return -1;
	//}

	// 0x15 0x16 0x17
	if (adv7513_video_in_format(ec, ADV7513_INPUT_ID_24BIT_RGB444_YCBCR444, ADV7513_INPUT_COLOR_DEPTH_8BIT, ADV7513_INPUT_COLOR_SPACE_RGB, ADV7513_INPUT_ASPECT_4V3, ADV7513_INPUT_INVALID) != 0)
   8176c:	d8000015 	stw	zero,0(sp)
   81770:	d8000115 	stw	zero,4(sp)
   81774:	e13ffe17 	ldw	r4,-8(fp)
   81778:	000b883a 	mov	r5,zero
   8177c:	018000c4 	movi	r6,3
   81780:	000f883a 	mov	r7,zero
   81784:	00809ac0 	call	809ac <adv7513_video_in_format>
   81788:	10000226 	beq	r2,zero,81794 <adv7513_video_init+0x44>
		return -1;
   8178c:	00bfffc4 	movi	r2,-1
   81790:	00001606 	br	817ec <adv7513_video_init+0x9c>

	// 0x16 0x18 0xaf 0x40 0x4c 0x3c
	if (dvi != 0) {
   81794:	e0bfff17 	ldw	r2,-4(fp)
   81798:	10000726 	beq	r2,zero,817b8 <adv7513_video_init+0x68>
		if (adv7513_video_out_format(ec, ADV7513_OUTPUT_444, ADV7513_MODE_DVI) != 0)
   8179c:	e13ffe17 	ldw	r4,-8(fp)
   817a0:	000b883a 	mov	r5,zero
   817a4:	000d883a 	mov	r6,zero
   817a8:	0080a840 	call	80a84 <adv7513_video_out_format>
   817ac:	10000926 	beq	r2,zero,817d4 <adv7513_video_init+0x84>
			return -1;
   817b0:	00bfffc4 	movi	r2,-1
   817b4:	00000d06 	br	817ec <adv7513_video_init+0x9c>
	} else {
		if (adv7513_video_out_format(ec, ADV7513_OUTPUT_444, ADV7513_MODE_HDMI) != 0)
   817b8:	e13ffe17 	ldw	r4,-8(fp)
   817bc:	000b883a 	mov	r5,zero
   817c0:	01800044 	movi	r6,1
   817c4:	0080a840 	call	80a84 <adv7513_video_out_format>
   817c8:	10000226 	beq	r2,zero,817d4 <adv7513_video_init+0x84>
			return -1;
   817cc:	00bfffc4 	movi	r2,-1
   817d0:	00000606 	br	817ec <adv7513_video_init+0x9c>
	//	return -1;

	//if (adv7513_de_gen(ec, 0, 40 + 48 + 40, 640, 13 + 3 + 29, 480, 0) != 0)
	//	return -1;

	if (adv7513_avi_infoframe(ec) != 0)
   817d4:	e13ffe17 	ldw	r4,-8(fp)
   817d8:	0080b9c0 	call	80b9c <adv7513_avi_infoframe>
   817dc:	10000226 	beq	r2,zero,817e8 <adv7513_video_init+0x98>
		return -1;
   817e0:	00bfffc4 	movi	r2,-1
   817e4:	00000106 	br	817ec <adv7513_video_init+0x9c>

	return 0;
   817e8:	0005883a 	mov	r2,zero
}
   817ec:	e037883a 	mov	sp,fp
   817f0:	dfc00117 	ldw	ra,4(sp)
   817f4:	df000017 	ldw	fp,0(sp)
   817f8:	dec00204 	addi	sp,sp,8
   817fc:	f800283a 	ret

00081800 <adv7513_video_init_3d>:

static int adv7513_video_init_3d(struct hdmi_encoder *ec, int vic)
{
   81800:	defffa04 	addi	sp,sp,-24
   81804:	dfc00515 	stw	ra,20(sp)
   81808:	df000415 	stw	fp,16(sp)
   8180c:	df000404 	addi	fp,sp,16
   81810:	e13ffe15 	stw	r4,-8(fp)
   81814:	e17fff15 	stw	r5,-4(fp)
   81818:	d83bb615 	stw	zero,-4392(sp)
	//	if (adv7513_video_misc_config(ec) != 0)
	//		return -1;
	//}

	// 0x15 0x16 0x17
	if (adv7513_video_in_format_3d(ec, ADV7513_INPUT_ID_24BIT_RGB444_YCBCR444, ADV7513_INPUT_COLOR_DEPTH_8BIT, ADV7513_INPUT_COLOR_SPACE_RGB, ADV7513_INPUT_INVALID, vic) != 0)
   8181c:	d8000015 	stw	zero,0(sp)
   81820:	e0bfff17 	ldw	r2,-4(fp)
   81824:	d8800115 	stw	r2,4(sp)
   81828:	e13ffe17 	ldw	r4,-8(fp)
   8182c:	000b883a 	mov	r5,zero
   81830:	018000c4 	movi	r6,3
   81834:	000f883a 	mov	r7,zero
   81838:	0080fac0 	call	80fac <adv7513_video_in_format_3d>
   8183c:	10000226 	beq	r2,zero,81848 <adv7513_video_init_3d+0x48>
		return -1;
   81840:	00bfffc4 	movi	r2,-1
   81844:	00000e06 	br	81880 <adv7513_video_init_3d+0x80>

	// 0x16 0x18 0xaf 0x40 0x4c 0x3c
	if (adv7513_video_out_format_3d(ec, ADV7513_OUTPUT_444, vic) != 0)
   81848:	e13ffe17 	ldw	r4,-8(fp)
   8184c:	000b883a 	mov	r5,zero
   81850:	e1bfff17 	ldw	r6,-4(fp)
   81854:	008162c0 	call	8162c <adv7513_video_out_format_3d>
   81858:	10000226 	beq	r2,zero,81864 <adv7513_video_init_3d+0x64>
		return -1;
   8185c:	00bfffc4 	movi	r2,-1
   81860:	00000706 	br	81880 <adv7513_video_init_3d+0x80>
	//	return -1;

	//if (adv7513_de_gen(ec, 0, 40 + 48 + 40, 640, 13 + 3 + 29, 480, 0) != 0)
	//	return -1;

	if (adv7513_avi_infoframe_3d(ec, vic) != 0)
   81864:	e13ffe17 	ldw	r4,-8(fp)
   81868:	e17fff17 	ldw	r5,-4(fp)
   8186c:	00811280 	call	81128 <adv7513_avi_infoframe_3d>
   81870:	10000226 	beq	r2,zero,8187c <adv7513_video_init_3d+0x7c>
		return -1;
   81874:	00bfffc4 	movi	r2,-1
   81878:	00000106 	br	81880 <adv7513_video_init_3d+0x80>

	return 0;
   8187c:	0005883a 	mov	r2,zero
}
   81880:	e037883a 	mov	sp,fp
   81884:	dfc00117 	ldw	ra,4(sp)
   81888:	df000017 	ldw	fp,0(sp)
   8188c:	dec00204 	addi	sp,sp,8
   81890:	f800283a 	ret

00081894 <adv7513_chip_init>:
	return 0;
}
#endif

int adv7513_chip_init(struct hdmi_encoder *ec, int dvi)
{
   81894:	defffc04 	addi	sp,sp,-16
   81898:	dfc00315 	stw	ra,12(sp)
   8189c:	df000215 	stw	fp,8(sp)
   818a0:	df000204 	addi	fp,sp,8
   818a4:	e13ffe15 	stw	r4,-8(fp)
   818a8:	e17fff15 	stw	r5,-4(fp)
   818ac:	d83bb615 	stw	zero,-4392(sp)
	if (adv7513_video_init(ec, dvi) != 0)
   818b0:	e13ffe17 	ldw	r4,-8(fp)
   818b4:	e17fff17 	ldw	r5,-4(fp)
   818b8:	00817500 	call	81750 <adv7513_video_init>
   818bc:	10000226 	beq	r2,zero,818c8 <adv7513_chip_init+0x34>
		return -1;
   818c0:	00bfffc4 	movi	r2,-1
   818c4:	00000106 	br	818cc <adv7513_chip_init+0x38>

	//if (adv7513_audio_init(ec) != 0)
	//	return -1;

	return 0;
   818c8:	0005883a 	mov	r2,zero
}
   818cc:	e037883a 	mov	sp,fp
   818d0:	dfc00117 	ldw	ra,4(sp)
   818d4:	df000017 	ldw	fp,0(sp)
   818d8:	dec00204 	addi	sp,sp,8
   818dc:	f800283a 	ret

000818e0 <adv7513_chip_init_3d>:

int adv7513_chip_init_3d(struct hdmi_encoder *ec, int vic)
{
   818e0:	defffc04 	addi	sp,sp,-16
   818e4:	dfc00315 	stw	ra,12(sp)
   818e8:	df000215 	stw	fp,8(sp)
   818ec:	df000204 	addi	fp,sp,8
   818f0:	e13ffe15 	stw	r4,-8(fp)
   818f4:	e17fff15 	stw	r5,-4(fp)
   818f8:	d83bb615 	stw	zero,-4392(sp)
	if (adv7513_video_init_3d(ec, vic) != 0)
   818fc:	e13ffe17 	ldw	r4,-8(fp)
   81900:	e17fff17 	ldw	r5,-4(fp)
   81904:	00818000 	call	81800 <adv7513_video_init_3d>
   81908:	10000226 	beq	r2,zero,81914 <adv7513_chip_init_3d+0x34>
		return -1;
   8190c:	00bfffc4 	movi	r2,-1
   81910:	00000106 	br	81918 <adv7513_chip_init_3d+0x38>

	//if (adv7513_audio_init(ec) != 0)
	//	return -1;

	return 0;
   81914:	0005883a 	mov	r2,zero
}
   81918:	e037883a 	mov	sp,fp
   8191c:	dfc00117 	ldw	ra,4(sp)
   81920:	df000017 	ldw	fp,0(sp)
   81924:	dec00204 	addi	sp,sp,8
   81928:	f800283a 	ret

0008192c <eb_establish_timing>:
	int interlaced;
	int rb;			// reduced blanking
};

static inline void eb_establish_timing(struct eb_established_timing *et, int x, int y, int r, int valid)
{
   8192c:	defffb04 	addi	sp,sp,-20
   81930:	df000415 	stw	fp,16(sp)
   81934:	df000404 	addi	fp,sp,16
   81938:	e13ffc15 	stw	r4,-16(fp)
   8193c:	e17ffd15 	stw	r5,-12(fp)
   81940:	e1bffe15 	stw	r6,-8(fp)
   81944:	e1ffff15 	stw	r7,-4(fp)
	if (valid) {
   81948:	e0800117 	ldw	r2,4(fp)
   8194c:	10001126 	beq	r2,zero,81994 <eb_establish_timing+0x68>
		et->valid = 1;
   81950:	e0bffc17 	ldw	r2,-16(fp)
   81954:	00c00044 	movi	r3,1
   81958:	10c00015 	stw	r3,0(r2)
		et->width = x;
   8195c:	e0bffc17 	ldw	r2,-16(fp)
   81960:	e0fffd17 	ldw	r3,-12(fp)
   81964:	10c00115 	stw	r3,4(r2)
		et->height = y;
   81968:	e0bffc17 	ldw	r2,-16(fp)
   8196c:	e0fffe17 	ldw	r3,-8(fp)
   81970:	10c00215 	stw	r3,8(r2)
		et->refresh = r;
   81974:	e0bffc17 	ldw	r2,-16(fp)
   81978:	e0ffff17 	ldw	r3,-4(fp)
   8197c:	10c00315 	stw	r3,12(r2)
		et->interlaced = 0;
   81980:	e0bffc17 	ldw	r2,-16(fp)
   81984:	10000415 	stw	zero,16(r2)
		et->rb = 0;
   81988:	e0bffc17 	ldw	r2,-16(fp)
   8198c:	10000515 	stw	zero,20(r2)
   81990:	00000c06 	br	819c4 <eb_establish_timing+0x98>
	} else {
		et->valid = 0;
   81994:	e0bffc17 	ldw	r2,-16(fp)
   81998:	10000015 	stw	zero,0(r2)
		et->width = 0;
   8199c:	e0bffc17 	ldw	r2,-16(fp)
   819a0:	10000115 	stw	zero,4(r2)
		et->height = 0;
   819a4:	e0bffc17 	ldw	r2,-16(fp)
   819a8:	10000215 	stw	zero,8(r2)
		et->refresh = 0;
   819ac:	e0bffc17 	ldw	r2,-16(fp)
   819b0:	10000315 	stw	zero,12(r2)
		et->interlaced = 0;
   819b4:	e0bffc17 	ldw	r2,-16(fp)
   819b8:	10000415 	stw	zero,16(r2)
		et->rb = 0;
   819bc:	e0bffc17 	ldw	r2,-16(fp)
   819c0:	10000515 	stw	zero,20(r2)
	}
}
   819c4:	e037883a 	mov	sp,fp
   819c8:	df000017 	ldw	fp,0(sp)
   819cc:	dec00104 	addi	sp,sp,4
   819d0:	f800283a 	ret

000819d4 <eb_establish_timing_i>:

static inline void eb_establish_timing_i(struct eb_established_timing *et, int x, int y, int r, int valid)
{
   819d4:	defffb04 	addi	sp,sp,-20
   819d8:	df000415 	stw	fp,16(sp)
   819dc:	df000404 	addi	fp,sp,16
   819e0:	e13ffc15 	stw	r4,-16(fp)
   819e4:	e17ffd15 	stw	r5,-12(fp)
   819e8:	e1bffe15 	stw	r6,-8(fp)
   819ec:	e1ffff15 	stw	r7,-4(fp)
	if (valid) {
   819f0:	e0800117 	ldw	r2,4(fp)
   819f4:	10001226 	beq	r2,zero,81a40 <eb_establish_timing_i+0x6c>
		et->valid = 1;
   819f8:	e0bffc17 	ldw	r2,-16(fp)
   819fc:	00c00044 	movi	r3,1
   81a00:	10c00015 	stw	r3,0(r2)
		et->width = x;
   81a04:	e0bffc17 	ldw	r2,-16(fp)
   81a08:	e0fffd17 	ldw	r3,-12(fp)
   81a0c:	10c00115 	stw	r3,4(r2)
		et->height = y;
   81a10:	e0bffc17 	ldw	r2,-16(fp)
   81a14:	e0fffe17 	ldw	r3,-8(fp)
   81a18:	10c00215 	stw	r3,8(r2)
		et->refresh = r;
   81a1c:	e0bffc17 	ldw	r2,-16(fp)
   81a20:	e0ffff17 	ldw	r3,-4(fp)
   81a24:	10c00315 	stw	r3,12(r2)
		et->interlaced = 1;
   81a28:	e0bffc17 	ldw	r2,-16(fp)
   81a2c:	00c00044 	movi	r3,1
   81a30:	10c00415 	stw	r3,16(r2)
		et->rb = 0;
   81a34:	e0bffc17 	ldw	r2,-16(fp)
   81a38:	10000515 	stw	zero,20(r2)
   81a3c:	00000c06 	br	81a70 <eb_establish_timing_i+0x9c>
	} else {
		et->valid = 0;
   81a40:	e0bffc17 	ldw	r2,-16(fp)
   81a44:	10000015 	stw	zero,0(r2)
		et->width = 0;
   81a48:	e0bffc17 	ldw	r2,-16(fp)
   81a4c:	10000115 	stw	zero,4(r2)
		et->height = 0;
   81a50:	e0bffc17 	ldw	r2,-16(fp)
   81a54:	10000215 	stw	zero,8(r2)
		et->refresh = 0;
   81a58:	e0bffc17 	ldw	r2,-16(fp)
   81a5c:	10000315 	stw	zero,12(r2)
		et->interlaced = 0;
   81a60:	e0bffc17 	ldw	r2,-16(fp)
   81a64:	10000415 	stw	zero,16(r2)
		et->rb = 0;
   81a68:	e0bffc17 	ldw	r2,-16(fp)
   81a6c:	10000515 	stw	zero,20(r2)
	}
}
   81a70:	e037883a 	mov	sp,fp
   81a74:	df000017 	ldw	fp,0(sp)
   81a78:	dec00104 	addi	sp,sp,4
   81a7c:	f800283a 	ret

00081a80 <eb_establish_timing_rb>:

static inline void eb_establish_timing_rb(struct eb_established_timing *et, int x, int y, int r, int valid)
{
   81a80:	defffb04 	addi	sp,sp,-20
   81a84:	df000415 	stw	fp,16(sp)
   81a88:	df000404 	addi	fp,sp,16
   81a8c:	e13ffc15 	stw	r4,-16(fp)
   81a90:	e17ffd15 	stw	r5,-12(fp)
   81a94:	e1bffe15 	stw	r6,-8(fp)
   81a98:	e1ffff15 	stw	r7,-4(fp)
	if (valid) {
   81a9c:	e0800117 	ldw	r2,4(fp)
   81aa0:	10001226 	beq	r2,zero,81aec <eb_establish_timing_rb+0x6c>
		et->valid = 1;
   81aa4:	e0bffc17 	ldw	r2,-16(fp)
   81aa8:	00c00044 	movi	r3,1
   81aac:	10c00015 	stw	r3,0(r2)
		et->width = x;
   81ab0:	e0bffc17 	ldw	r2,-16(fp)
   81ab4:	e0fffd17 	ldw	r3,-12(fp)
   81ab8:	10c00115 	stw	r3,4(r2)
		et->height = y;
   81abc:	e0bffc17 	ldw	r2,-16(fp)
   81ac0:	e0fffe17 	ldw	r3,-8(fp)
   81ac4:	10c00215 	stw	r3,8(r2)
		et->refresh = r;
   81ac8:	e0bffc17 	ldw	r2,-16(fp)
   81acc:	e0ffff17 	ldw	r3,-4(fp)
   81ad0:	10c00315 	stw	r3,12(r2)
		et->interlaced = 0;
   81ad4:	e0bffc17 	ldw	r2,-16(fp)
   81ad8:	10000415 	stw	zero,16(r2)
		et->rb = 1;
   81adc:	e0bffc17 	ldw	r2,-16(fp)
   81ae0:	00c00044 	movi	r3,1
   81ae4:	10c00515 	stw	r3,20(r2)
   81ae8:	00000c06 	br	81b1c <eb_establish_timing_rb+0x9c>
	} else {
		et->valid = 0;
   81aec:	e0bffc17 	ldw	r2,-16(fp)
   81af0:	10000015 	stw	zero,0(r2)
		et->width = 0;
   81af4:	e0bffc17 	ldw	r2,-16(fp)
   81af8:	10000115 	stw	zero,4(r2)
		et->height = 0;
   81afc:	e0bffc17 	ldw	r2,-16(fp)
   81b00:	10000215 	stw	zero,8(r2)
		et->refresh = 0;
   81b04:	e0bffc17 	ldw	r2,-16(fp)
   81b08:	10000315 	stw	zero,12(r2)
		et->interlaced = 0;
   81b0c:	e0bffc17 	ldw	r2,-16(fp)
   81b10:	10000415 	stw	zero,16(r2)
		et->rb = 0;
   81b14:	e0bffc17 	ldw	r2,-16(fp)
   81b18:	10000515 	stw	zero,20(r2)
	}
}
   81b1c:	e037883a 	mov	sp,fp
   81b20:	df000017 	ldw	fp,0(sp)
   81b24:	dec00104 	addi	sp,sp,4
   81b28:	f800283a 	ret

00081b2c <edid_decode_cea>:
    return v;
}
#endif

int edid_decode_cea(struct base_edid *edid, const unsigned char *edid_bin, int ext_idx)
{
   81b2c:	deffef04 	addi	sp,sp,-68
   81b30:	dfc01015 	stw	ra,64(sp)
   81b34:	df000f15 	stw	fp,60(sp)
   81b38:	df000f04 	addi	fp,sp,60
   81b3c:	e13ffd15 	stw	r4,-12(fp)
   81b40:	e17ffe15 	stw	r5,-8(fp)
   81b44:	e1bfff15 	stw	r6,-4(fp)
   81b48:	d83bb615 	stw	zero,-4392(sp)
	u8 *ext_bin = (u8 *)&edid_bin[128 * (ext_idx + 1)];
   81b4c:	e0bfff17 	ldw	r2,-4(fp)
   81b50:	10800044 	addi	r2,r2,1
   81b54:	100491fa 	slli	r2,r2,7
   81b58:	e0fffe17 	ldw	r3,-8(fp)
   81b5c:	1885883a 	add	r2,r3,r2
   81b60:	e0bff715 	stw	r2,-36(fp)
	u8 *c, *hv, *dtd = 0;
   81b64:	e03ff315 	stw	zero,-52(fp)
	int i;

	struct ext_data *ext_data = &edid->ext_data[ext_idx];
   81b68:	e0bfff17 	ldw	r2,-4(fp)
   81b6c:	10816f24 	muli	r2,r2,1468
   81b70:	10860b04 	addi	r2,r2,6188
   81b74:	e0fffd17 	ldw	r3,-12(fp)
   81b78:	1885883a 	add	r2,r3,r2
   81b7c:	e0bff815 	stw	r2,-32(fp)
	struct edid_cea *cea = &ext_data->cea_ext;
   81b80:	e0bff817 	ldw	r2,-32(fp)
   81b84:	10800104 	addi	r2,r2,4
   81b88:	e0bff915 	stw	r2,-28(fp)

	c = &ext_bin[1];
   81b8c:	e0bff717 	ldw	r2,-36(fp)
   81b90:	10800044 	addi	r2,r2,1
   81b94:	e0bff115 	stw	r2,-60(fp)

	// version
	if (*c != 0x03)
   81b98:	e0bff117 	ldw	r2,-60(fp)
   81b9c:	10800003 	ldbu	r2,0(r2)
   81ba0:	10803fcc 	andi	r2,r2,255
   81ba4:	108000e0 	cmpeqi	r2,r2,3
   81ba8:	1000021e 	bne	r2,zero,81bb4 <edid_decode_cea+0x88>
		return -1;	// todo: support v1 / v2
   81bac:	00bfffc4 	movi	r2,-1
   81bb0:	00060606 	br	833cc <edid_decode_cea+0x18a0>

	ext_data->ext_tag = EDID_EXT_TAG_CEA;
   81bb4:	e0bff817 	ldw	r2,-32(fp)
   81bb8:	00c00084 	movi	r3,2
   81bbc:	10c00015 	stw	r3,0(r2)
	cea->rev = *c;
   81bc0:	e0bff117 	ldw	r2,-60(fp)
   81bc4:	10800003 	ldbu	r2,0(r2)
   81bc8:	10c03fcc 	andi	r3,r2,255
   81bcc:	e0bff917 	ldw	r2,-28(fp)
   81bd0:	10c00015 	stw	r3,0(r2)

	// obtain offset to detail timing descriptor
	c = &ext_bin[2];
   81bd4:	e0bff717 	ldw	r2,-36(fp)
   81bd8:	10800084 	addi	r2,r2,2
   81bdc:	e0bff115 	stw	r2,-60(fp)
	if (*c > 4)
   81be0:	e0bff117 	ldw	r2,-60(fp)
   81be4:	10800003 	ldbu	r2,0(r2)
   81be8:	10803fcc 	andi	r2,r2,255
   81bec:	10800170 	cmpltui	r2,r2,5
   81bf0:	1000061e 	bne	r2,zero,81c0c <edid_decode_cea+0xe0>
		dtd = &ext_bin[*c];
   81bf4:	e0bff117 	ldw	r2,-60(fp)
   81bf8:	10800003 	ldbu	r2,0(r2)
   81bfc:	10803fcc 	andi	r2,r2,255
   81c00:	e0fff717 	ldw	r3,-36(fp)
   81c04:	1885883a 	add	r2,r3,r2
   81c08:	e0bff315 	stw	r2,-52(fp)

	cea->off_dtd = c[0];
   81c0c:	e0bff117 	ldw	r2,-60(fp)
   81c10:	10800003 	ldbu	r2,0(r2)
   81c14:	10c03fcc 	andi	r3,r2,255
   81c18:	e0bff917 	ldw	r2,-28(fp)
   81c1c:	10c00515 	stw	r3,20(r2)
	cea->nr_dtd = c[1] & 0x0f;
   81c20:	e0bff117 	ldw	r2,-60(fp)
   81c24:	10800044 	addi	r2,r2,1
   81c28:	10800003 	ldbu	r2,0(r2)
   81c2c:	10803fcc 	andi	r2,r2,255
   81c30:	10c003cc 	andi	r3,r2,15
   81c34:	e0bff917 	ldw	r2,-28(fp)
   81c38:	10c00615 	stw	r3,24(r2)

	cea->flags.underscan = ((c[1] & 0x80) > 0) ? 1 : 0;
   81c3c:	e0bff117 	ldw	r2,-60(fp)
   81c40:	10800044 	addi	r2,r2,1
   81c44:	10800003 	ldbu	r2,0(r2)
   81c48:	10803fcc 	andi	r2,r2,255
   81c4c:	1080200c 	andi	r2,r2,128
   81c50:	0084803a 	cmplt	r2,zero,r2
   81c54:	10c03fcc 	andi	r3,r2,255
   81c58:	e0bff917 	ldw	r2,-28(fp)
   81c5c:	10c00115 	stw	r3,4(r2)
	cea->flags.audio = ((c[1] & 0x40) > 0) ? 1 : 0;
   81c60:	e0bff117 	ldw	r2,-60(fp)
   81c64:	10800044 	addi	r2,r2,1
   81c68:	10800003 	ldbu	r2,0(r2)
   81c6c:	10803fcc 	andi	r2,r2,255
   81c70:	1080100c 	andi	r2,r2,64
   81c74:	0084803a 	cmplt	r2,zero,r2
   81c78:	10c03fcc 	andi	r3,r2,255
   81c7c:	e0bff917 	ldw	r2,-28(fp)
   81c80:	10c00215 	stw	r3,8(r2)
	cea->flags.ycbcr444 = ((c[1] & 0x20) > 0) ? 1 : 0;
   81c84:	e0bff117 	ldw	r2,-60(fp)
   81c88:	10800044 	addi	r2,r2,1
   81c8c:	10800003 	ldbu	r2,0(r2)
   81c90:	10803fcc 	andi	r2,r2,255
   81c94:	1080080c 	andi	r2,r2,32
   81c98:	0084803a 	cmplt	r2,zero,r2
   81c9c:	10c03fcc 	andi	r3,r2,255
   81ca0:	e0bff917 	ldw	r2,-28(fp)
   81ca4:	10c00315 	stw	r3,12(r2)
	cea->flags.ycbcr422 = ((c[1] & 0x10) > 0) ? 1 : 0;
   81ca8:	e0bff117 	ldw	r2,-60(fp)
   81cac:	10800044 	addi	r2,r2,1
   81cb0:	10800003 	ldbu	r2,0(r2)
   81cb4:	10803fcc 	andi	r2,r2,255
   81cb8:	1080040c 	andi	r2,r2,16
   81cbc:	0084803a 	cmplt	r2,zero,r2
   81cc0:	10c03fcc 	andi	r3,r2,255
   81cc4:	e0bff917 	ldw	r2,-28(fp)
   81cc8:	10c00415 	stw	r3,16(r2)

	// data block collection
	c = &ext_bin[4];
   81ccc:	e0bff717 	ldw	r2,-36(fp)
   81cd0:	10800104 	addi	r2,r2,4
   81cd4:	e0bff115 	stw	r2,-60(fp)

	cea->nr_dbcs = 0;
   81cd8:	e0bff917 	ldw	r2,-28(fp)
   81cdc:	10000715 	stw	zero,28(r2)
	while (c < dtd) {
   81ce0:	00038f06 	br	82b20 <edid_decode_cea+0xff4>
		switch (*c >> 5) {
   81ce4:	e0bff117 	ldw	r2,-60(fp)
   81ce8:	10800003 	ldbu	r2,0(r2)
   81cec:	10803fcc 	andi	r2,r2,255
   81cf0:	1004d17a 	srli	r2,r2,5
   81cf4:	10803fcc 	andi	r2,r2,255
   81cf8:	10c00228 	cmpgeui	r3,r2,8
   81cfc:	1803851e 	bne	r3,zero,82b14 <edid_decode_cea+0xfe8>
   81d00:	1085883a 	add	r2,r2,r2
   81d04:	1087883a 	add	r3,r2,r2
   81d08:	00800234 	movhi	r2,8
   81d0c:	10874704 	addi	r2,r2,7452
   81d10:	1885883a 	add	r2,r3,r2
   81d14:	10800017 	ldw	r2,0(r2)
   81d18:	1000683a 	jmp	r2
   81d1c:	00082b14 	movui	zero,8364
   81d20:	00081d3c 	xorhi	zero,zero,8308
   81d24:	00081f38 	rdprs	zero,zero,8316
   81d28:	00082030 	cmpltui	zero,zero,8320
   81d2c:	000827b8 	rdprs	zero,zero,8350
   81d30:	00082820 	cmpeqi	zero,zero,8352
   81d34:	00082b14 	movui	zero,8364
   81d38:	0008286c 	andhi	zero,zero,8353
		case CEA_DB_AUDIO:
			cea->dbc_tags[cea->nr_dbcs++] = CEA_DB_AUDIO;
   81d3c:	e0bff917 	ldw	r2,-28(fp)
   81d40:	10800717 	ldw	r2,28(r2)
   81d44:	e0fff917 	ldw	r3,-28(fp)
   81d48:	1887883a 	add	r3,r3,r2
   81d4c:	18c00804 	addi	r3,r3,32
   81d50:	01000044 	movi	r4,1
   81d54:	19000005 	stb	r4,0(r3)
   81d58:	10c00044 	addi	r3,r2,1
   81d5c:	e0bff917 	ldw	r2,-28(fp)
   81d60:	10c00715 	stw	r3,28(r2)
			cea->db_audio.nr_sad = (int)(*c & 0x1f) / 3;
   81d64:	e0bff117 	ldw	r2,-60(fp)
   81d68:	10800003 	ldbu	r2,0(r2)
   81d6c:	10803fcc 	andi	r2,r2,255
   81d70:	108007cc 	andi	r2,r2,31
   81d74:	1009883a 	mov	r4,r2
   81d78:	014000c4 	movi	r5,3
   81d7c:	008ce8c0 	call	8ce8c <__divsi3>
   81d80:	1007883a 	mov	r3,r2
   81d84:	e0bff917 	ldw	r2,-28(fp)
   81d88:	10c06815 	stw	r3,416(r2)
			for (i = 0; i < cea->db_audio.nr_sad; ++i) {
   81d8c:	e03ff415 	stw	zero,-48(fp)
   81d90:	00005c06 	br	81f04 <edid_decode_cea+0x3d8>
				u8 *sad_bin = &c[1+3*i];
   81d94:	e0fff417 	ldw	r3,-48(fp)
   81d98:	1805883a 	mov	r2,r3
   81d9c:	1085883a 	add	r2,r2,r2
   81da0:	10c5883a 	add	r2,r2,r3
   81da4:	10800044 	addi	r2,r2,1
   81da8:	e0fff117 	ldw	r3,-60(fp)
   81dac:	1885883a 	add	r2,r3,r2
   81db0:	e0bffa15 	stw	r2,-24(fp)
				cea->db_audio.sad[i].format = (int)((*sad_bin >> 3) & 0xf);
   81db4:	e0bffa17 	ldw	r2,-24(fp)
   81db8:	10800003 	ldbu	r2,0(r2)
   81dbc:	10803fcc 	andi	r2,r2,255
   81dc0:	1004d0fa 	srli	r2,r2,3
   81dc4:	10803fcc 	andi	r2,r2,255
   81dc8:	10c003cc 	andi	r3,r2,15
   81dcc:	e13ff917 	ldw	r4,-28(fp)
   81dd0:	e0bff417 	ldw	r2,-48(fp)
   81dd4:	10800524 	muli	r2,r2,20
   81dd8:	2085883a 	add	r2,r4,r2
   81ddc:	10806904 	addi	r2,r2,420
   81de0:	10c00015 	stw	r3,0(r2)
				cea->db_audio.sad[i].channels = (int)(*sad_bin & 0x7) + 1;
   81de4:	e0bffa17 	ldw	r2,-24(fp)
   81de8:	10800003 	ldbu	r2,0(r2)
   81dec:	10803fcc 	andi	r2,r2,255
   81df0:	108001cc 	andi	r2,r2,7
   81df4:	10c00044 	addi	r3,r2,1
   81df8:	e13ff917 	ldw	r4,-28(fp)
   81dfc:	e0bff417 	ldw	r2,-48(fp)
   81e00:	10800524 	muli	r2,r2,20
   81e04:	2085883a 	add	r2,r4,r2
   81e08:	10806a04 	addi	r2,r2,424
   81e0c:	10c00015 	stw	r3,0(r2)
				cea->db_audio.sad[i].freq = (int)(sad_bin[1] & 0x7f);
   81e10:	e0bffa17 	ldw	r2,-24(fp)
   81e14:	10800044 	addi	r2,r2,1
   81e18:	10800003 	ldbu	r2,0(r2)
   81e1c:	10803fcc 	andi	r2,r2,255
   81e20:	10c01fcc 	andi	r3,r2,127
   81e24:	e13ff917 	ldw	r4,-28(fp)
   81e28:	e0bff417 	ldw	r2,-48(fp)
   81e2c:	10800524 	muli	r2,r2,20
   81e30:	2085883a 	add	r2,r4,r2
   81e34:	10806b04 	addi	r2,r2,428
   81e38:	10c00015 	stw	r3,0(r2)

				if (cea->db_audio.sad[i].format == CEA_SAD_FMT_LPCM) {
   81e3c:	e0fff917 	ldw	r3,-28(fp)
   81e40:	e0bff417 	ldw	r2,-48(fp)
   81e44:	10800524 	muli	r2,r2,20
   81e48:	1885883a 	add	r2,r3,r2
   81e4c:	10806904 	addi	r2,r2,420
   81e50:	10800017 	ldw	r2,0(r2)
   81e54:	10800058 	cmpnei	r2,r2,1
   81e58:	10000c1e 	bne	r2,zero,81e8c <edid_decode_cea+0x360>
					cea->db_audio.sad[i].resolution = (int)(sad_bin[2] & 0x07);
   81e5c:	e0bffa17 	ldw	r2,-24(fp)
   81e60:	10800084 	addi	r2,r2,2
   81e64:	10800003 	ldbu	r2,0(r2)
   81e68:	10803fcc 	andi	r2,r2,255
   81e6c:	10c001cc 	andi	r3,r2,7
   81e70:	e13ff917 	ldw	r4,-28(fp)
   81e74:	e0bff417 	ldw	r2,-48(fp)
   81e78:	10800524 	muli	r2,r2,20
   81e7c:	2085883a 	add	r2,r4,r2
   81e80:	10806c04 	addi	r2,r2,432
   81e84:	10c00015 	stw	r3,0(r2)
   81e88:	00001b06 	br	81ef8 <edid_decode_cea+0x3cc>
				} else if (cea->db_audio.sad[i].format != 0) {
   81e8c:	e0fff917 	ldw	r3,-28(fp)
   81e90:	e0bff417 	ldw	r2,-48(fp)
   81e94:	10800524 	muli	r2,r2,20
   81e98:	1885883a 	add	r2,r3,r2
   81e9c:	10806904 	addi	r2,r2,420
   81ea0:	10800017 	ldw	r2,0(r2)
   81ea4:	10001426 	beq	r2,zero,81ef8 <edid_decode_cea+0x3cc>
					if (cea->db_audio.sad[i].format <= CEA_SAD_FMT_ATRAC) {
   81ea8:	e0fff917 	ldw	r3,-28(fp)
   81eac:	e0bff417 	ldw	r2,-48(fp)
   81eb0:	10800524 	muli	r2,r2,20
   81eb4:	1885883a 	add	r2,r3,r2
   81eb8:	10806904 	addi	r2,r2,420
   81ebc:	10800017 	ldw	r2,0(r2)
   81ec0:	10800248 	cmpgei	r2,r2,9
   81ec4:	10000c1e 	bne	r2,zero,81ef8 <edid_decode_cea+0x3cc>
						cea->db_audio.sad[i].bitrate = (int)sad_bin[2] * 8;
   81ec8:	e0bffa17 	ldw	r2,-24(fp)
   81ecc:	10800084 	addi	r2,r2,2
   81ed0:	10800003 	ldbu	r2,0(r2)
   81ed4:	10803fcc 	andi	r2,r2,255
   81ed8:	100690fa 	slli	r3,r2,3
   81edc:	e13ff917 	ldw	r4,-28(fp)
   81ee0:	e0bff417 	ldw	r2,-48(fp)
   81ee4:	10800044 	addi	r2,r2,1
   81ee8:	10800524 	muli	r2,r2,20
   81eec:	2085883a 	add	r2,r4,r2
   81ef0:	10806804 	addi	r2,r2,416
   81ef4:	10c00015 	stw	r3,0(r2)
	while (c < dtd) {
		switch (*c >> 5) {
		case CEA_DB_AUDIO:
			cea->dbc_tags[cea->nr_dbcs++] = CEA_DB_AUDIO;
			cea->db_audio.nr_sad = (int)(*c & 0x1f) / 3;
			for (i = 0; i < cea->db_audio.nr_sad; ++i) {
   81ef8:	e0bff417 	ldw	r2,-48(fp)
   81efc:	10800044 	addi	r2,r2,1
   81f00:	e0bff415 	stw	r2,-48(fp)
   81f04:	e0bff917 	ldw	r2,-28(fp)
   81f08:	10806817 	ldw	r2,416(r2)
   81f0c:	e0fff417 	ldw	r3,-48(fp)
   81f10:	18bfa016 	blt	r3,r2,81d94 <edid_decode_cea+0x268>
					if (cea->db_audio.sad[i].format <= CEA_SAD_FMT_ATRAC) {
						cea->db_audio.sad[i].bitrate = (int)sad_bin[2] * 8;
					}
				}
			}
			c += (*c & 0x1f) + 1;
   81f14:	e0bff117 	ldw	r2,-60(fp)
   81f18:	10800003 	ldbu	r2,0(r2)
   81f1c:	10803fcc 	andi	r2,r2,255
   81f20:	108007cc 	andi	r2,r2,31
   81f24:	10800044 	addi	r2,r2,1
   81f28:	e0fff117 	ldw	r3,-60(fp)
   81f2c:	1885883a 	add	r2,r3,r2
   81f30:	e0bff115 	stw	r2,-60(fp)
			break;
   81f34:	0002fa06 	br	82b20 <edid_decode_cea+0xff4>

		case CEA_DB_VIDEO:
			cea->dbc_tags[cea->nr_dbcs++] = CEA_DB_VIDEO;
   81f38:	e0bff917 	ldw	r2,-28(fp)
   81f3c:	10800717 	ldw	r2,28(r2)
   81f40:	e0fff917 	ldw	r3,-28(fp)
   81f44:	1887883a 	add	r3,r3,r2
   81f48:	18c00804 	addi	r3,r3,32
   81f4c:	01000084 	movi	r4,2
   81f50:	19000005 	stb	r4,0(r3)
   81f54:	10c00044 	addi	r3,r2,1
   81f58:	e0bff917 	ldw	r2,-28(fp)
   81f5c:	10c00715 	stw	r3,28(r2)
			cea->db_video.nr_svd = (int)(*c & 0x1f);
   81f60:	e0bff117 	ldw	r2,-60(fp)
   81f64:	10800003 	ldbu	r2,0(r2)
   81f68:	10803fcc 	andi	r2,r2,255
   81f6c:	10c007cc 	andi	r3,r2,31
   81f70:	e0bff917 	ldw	r2,-28(fp)
   81f74:	10c02715 	stw	r3,156(r2)
			for (i = 0; i < cea->db_video.nr_svd; ++i) {
   81f78:	e03ff415 	stw	zero,-48(fp)
   81f7c:	00001f06 	br	81ffc <edid_decode_cea+0x4d0>
				cea->db_video.svd[i].native = c[1 + i] & 0x80 ? 1 : 0;
   81f80:	e0bff417 	ldw	r2,-48(fp)
   81f84:	10800044 	addi	r2,r2,1
   81f88:	e0fff117 	ldw	r3,-60(fp)
   81f8c:	1885883a 	add	r2,r3,r2
   81f90:	10800003 	ldbu	r2,0(r2)
   81f94:	10803fcc 	andi	r2,r2,255
   81f98:	1004d1fa 	srli	r2,r2,7
   81f9c:	10c03fcc 	andi	r3,r2,255
   81fa0:	e13ff917 	ldw	r4,-28(fp)
   81fa4:	e0bff417 	ldw	r2,-48(fp)
   81fa8:	10800504 	addi	r2,r2,20
   81fac:	100490fa 	slli	r2,r2,3
   81fb0:	2085883a 	add	r2,r4,r2
   81fb4:	10c00015 	stw	r3,0(r2)
				cea->db_video.svd[i].vic = (int)(c[1 + i] & 0x7f);
   81fb8:	e0bff417 	ldw	r2,-48(fp)
   81fbc:	10800044 	addi	r2,r2,1
   81fc0:	e0fff117 	ldw	r3,-60(fp)
   81fc4:	1885883a 	add	r2,r3,r2
   81fc8:	10800003 	ldbu	r2,0(r2)
   81fcc:	10803fcc 	andi	r2,r2,255
   81fd0:	10c01fcc 	andi	r3,r2,127
   81fd4:	e13ff917 	ldw	r4,-28(fp)
   81fd8:	e0bff417 	ldw	r2,-48(fp)
   81fdc:	10800044 	addi	r2,r2,1
   81fe0:	100490fa 	slli	r2,r2,3
   81fe4:	2085883a 	add	r2,r4,r2
   81fe8:	10802704 	addi	r2,r2,156
   81fec:	10c00015 	stw	r3,0(r2)
			break;

		case CEA_DB_VIDEO:
			cea->dbc_tags[cea->nr_dbcs++] = CEA_DB_VIDEO;
			cea->db_video.nr_svd = (int)(*c & 0x1f);
			for (i = 0; i < cea->db_video.nr_svd; ++i) {
   81ff0:	e0bff417 	ldw	r2,-48(fp)
   81ff4:	10800044 	addi	r2,r2,1
   81ff8:	e0bff415 	stw	r2,-48(fp)
   81ffc:	e0bff917 	ldw	r2,-28(fp)
   82000:	10802717 	ldw	r2,156(r2)
   82004:	e0fff417 	ldw	r3,-48(fp)
   82008:	18bfdd16 	blt	r3,r2,81f80 <edid_decode_cea+0x454>
				cea->db_video.svd[i].native = c[1 + i] & 0x80 ? 1 : 0;
				cea->db_video.svd[i].vic = (int)(c[1 + i] & 0x7f);
			}
			c += (*c & 0x1f) + 1;
   8200c:	e0bff117 	ldw	r2,-60(fp)
   82010:	10800003 	ldbu	r2,0(r2)
   82014:	10803fcc 	andi	r2,r2,255
   82018:	108007cc 	andi	r2,r2,31
   8201c:	10800044 	addi	r2,r2,1
   82020:	e0fff117 	ldw	r3,-60(fp)
   82024:	1885883a 	add	r2,r3,r2
   82028:	e0bff115 	stw	r2,-60(fp)
			break;
   8202c:	0002bc06 	br	82b20 <edid_decode_cea+0xff4>

		case CEA_DB_VENDOR:
			cea->dbc_tags[cea->nr_dbcs++] = CEA_DB_VENDOR;
   82030:	e0bff917 	ldw	r2,-28(fp)
   82034:	10800717 	ldw	r2,28(r2)
   82038:	e0fff917 	ldw	r3,-28(fp)
   8203c:	1887883a 	add	r3,r3,r2
   82040:	18c00804 	addi	r3,r3,32
   82044:	010000c4 	movi	r4,3
   82048:	19000005 	stb	r4,0(r3)
   8204c:	10c00044 	addi	r3,r2,1
   82050:	e0bff917 	ldw	r2,-28(fp)
   82054:	10c00715 	stw	r3,28(r2)

			if ((c[1] != 0x03) || (c[2] != 0x0c) || (c[3] != 0x00)) {
   82058:	e0bff117 	ldw	r2,-60(fp)
   8205c:	10800044 	addi	r2,r2,1
   82060:	10800003 	ldbu	r2,0(r2)
   82064:	10803fcc 	andi	r2,r2,255
   82068:	108000d8 	cmpnei	r2,r2,3
   8206c:	10000b1e 	bne	r2,zero,8209c <edid_decode_cea+0x570>
   82070:	e0bff117 	ldw	r2,-60(fp)
   82074:	10800084 	addi	r2,r2,2
   82078:	10800003 	ldbu	r2,0(r2)
   8207c:	10803fcc 	andi	r2,r2,255
   82080:	10800318 	cmpnei	r2,r2,12
   82084:	1000051e 	bne	r2,zero,8209c <edid_decode_cea+0x570>
   82088:	e0bff117 	ldw	r2,-60(fp)
   8208c:	108000c4 	addi	r2,r2,3
   82090:	10800003 	ldbu	r2,0(r2)
   82094:	10803fcc 	andi	r2,r2,255
   82098:	10000b26 	beq	r2,zero,820c8 <edid_decode_cea+0x59c>
				cea->db_vsdb_hdmi.ieee_reg_id = 0;
   8209c:	e0bff917 	ldw	r2,-28(fp)
   820a0:	10009d15 	stw	zero,628(r2)
				c += (*c & 0x1f) + 1;
   820a4:	e0bff117 	ldw	r2,-60(fp)
   820a8:	10800003 	ldbu	r2,0(r2)
   820ac:	10803fcc 	andi	r2,r2,255
   820b0:	108007cc 	andi	r2,r2,31
   820b4:	10800044 	addi	r2,r2,1
   820b8:	e0fff117 	ldw	r3,-60(fp)
   820bc:	1885883a 	add	r2,r3,r2
   820c0:	e0bff115 	stw	r2,-60(fp)
				break;
   820c4:	00029606 	br	82b20 <edid_decode_cea+0xff4>
			}

			cea->db_vsdb_hdmi.ext_len = (int)(*c & 0x1f);
   820c8:	e0bff117 	ldw	r2,-60(fp)
   820cc:	10800003 	ldbu	r2,0(r2)
   820d0:	10803fcc 	andi	r2,r2,255
   820d4:	10c007cc 	andi	r3,r2,31
   820d8:	e0bff917 	ldw	r2,-28(fp)
   820dc:	10c09c15 	stw	r3,624(r2)
			cea->db_vsdb_hdmi.ieee_reg_id = (c[3] << 16) | (c[2] << 8) | c[1];
   820e0:	e0bff117 	ldw	r2,-60(fp)
   820e4:	108000c4 	addi	r2,r2,3
   820e8:	10800003 	ldbu	r2,0(r2)
   820ec:	10803fcc 	andi	r2,r2,255
   820f0:	1006943a 	slli	r3,r2,16
   820f4:	e0bff117 	ldw	r2,-60(fp)
   820f8:	10800084 	addi	r2,r2,2
   820fc:	10800003 	ldbu	r2,0(r2)
   82100:	10803fcc 	andi	r2,r2,255
   82104:	1004923a 	slli	r2,r2,8
   82108:	1886b03a 	or	r3,r3,r2
   8210c:	e0bff117 	ldw	r2,-60(fp)
   82110:	10800044 	addi	r2,r2,1
   82114:	10800003 	ldbu	r2,0(r2)
   82118:	10803fcc 	andi	r2,r2,255
   8211c:	1886b03a 	or	r3,r3,r2
   82120:	e0bff917 	ldw	r2,-28(fp)
   82124:	10c09d15 	stw	r3,628(r2)

			cea->db_vsdb_hdmi.addr_a = (int)(c[4] >> 4);
   82128:	e0bff117 	ldw	r2,-60(fp)
   8212c:	10800104 	addi	r2,r2,4
   82130:	10800003 	ldbu	r2,0(r2)
   82134:	10803fcc 	andi	r2,r2,255
   82138:	1004d13a 	srli	r2,r2,4
   8213c:	10c03fcc 	andi	r3,r2,255
   82140:	e0bff917 	ldw	r2,-28(fp)
   82144:	10c09e15 	stw	r3,632(r2)
			cea->db_vsdb_hdmi.addr_b = (int)(c[4] & 0x0f);
   82148:	e0bff117 	ldw	r2,-60(fp)
   8214c:	10800104 	addi	r2,r2,4
   82150:	10800003 	ldbu	r2,0(r2)
   82154:	10803fcc 	andi	r2,r2,255
   82158:	10c003cc 	andi	r3,r2,15
   8215c:	e0bff917 	ldw	r2,-28(fp)
   82160:	10c09f15 	stw	r3,636(r2)
			cea->db_vsdb_hdmi.addr_c = (int)(c[5] >> 4);
   82164:	e0bff117 	ldw	r2,-60(fp)
   82168:	10800144 	addi	r2,r2,5
   8216c:	10800003 	ldbu	r2,0(r2)
   82170:	10803fcc 	andi	r2,r2,255
   82174:	1004d13a 	srli	r2,r2,4
   82178:	10c03fcc 	andi	r3,r2,255
   8217c:	e0bff917 	ldw	r2,-28(fp)
   82180:	10c0a015 	stw	r3,640(r2)
			cea->db_vsdb_hdmi.addr_d = (int)(c[5] & 0x0f);
   82184:	e0bff117 	ldw	r2,-60(fp)
   82188:	10800144 	addi	r2,r2,5
   8218c:	10800003 	ldbu	r2,0(r2)
   82190:	10803fcc 	andi	r2,r2,255
   82194:	10c003cc 	andi	r3,r2,15
   82198:	e0bff917 	ldw	r2,-28(fp)
   8219c:	10c0a115 	stw	r3,644(r2)

			if ((*c & 0x1f) >= 6) {
   821a0:	e0bff117 	ldw	r2,-60(fp)
   821a4:	10800003 	ldbu	r2,0(r2)
   821a8:	10803fcc 	andi	r2,r2,255
   821ac:	108007cc 	andi	r2,r2,31
   821b0:	10800190 	cmplti	r2,r2,6
   821b4:	1000361e 	bne	r2,zero,82290 <edid_decode_cea+0x764>
				cea->db_vsdb_hdmi.ai = (c[6] & 0x80) ? 1 : 0;
   821b8:	e0bff117 	ldw	r2,-60(fp)
   821bc:	10800184 	addi	r2,r2,6
   821c0:	10800003 	ldbu	r2,0(r2)
   821c4:	10803fcc 	andi	r2,r2,255
   821c8:	1004d1fa 	srli	r2,r2,7
   821cc:	10c03fcc 	andi	r3,r2,255
   821d0:	e0bff917 	ldw	r2,-28(fp)
   821d4:	10c0a215 	stw	r3,648(r2)
				cea->db_vsdb_hdmi.bpp48 = (c[6] & 0x40) ? 1 : 0;
   821d8:	e0bff117 	ldw	r2,-60(fp)
   821dc:	10800184 	addi	r2,r2,6
   821e0:	10800003 	ldbu	r2,0(r2)
   821e4:	10803fcc 	andi	r2,r2,255
   821e8:	1080100c 	andi	r2,r2,64
   821ec:	1004c03a 	cmpne	r2,r2,zero
   821f0:	10c03fcc 	andi	r3,r2,255
   821f4:	e0bff917 	ldw	r2,-28(fp)
   821f8:	10c0a515 	stw	r3,660(r2)
				cea->db_vsdb_hdmi.bpp36 = (c[6] & 0x20) ? 1 : 0;
   821fc:	e0bff117 	ldw	r2,-60(fp)
   82200:	10800184 	addi	r2,r2,6
   82204:	10800003 	ldbu	r2,0(r2)
   82208:	10803fcc 	andi	r2,r2,255
   8220c:	1080080c 	andi	r2,r2,32
   82210:	1004c03a 	cmpne	r2,r2,zero
   82214:	10c03fcc 	andi	r3,r2,255
   82218:	e0bff917 	ldw	r2,-28(fp)
   8221c:	10c0a415 	stw	r3,656(r2)
				cea->db_vsdb_hdmi.bpp30 = (c[6] & 0x10) ? 1 : 0;
   82220:	e0bff117 	ldw	r2,-60(fp)
   82224:	10800184 	addi	r2,r2,6
   82228:	10800003 	ldbu	r2,0(r2)
   8222c:	10803fcc 	andi	r2,r2,255
   82230:	1080040c 	andi	r2,r2,16
   82234:	1004c03a 	cmpne	r2,r2,zero
   82238:	10c03fcc 	andi	r3,r2,255
   8223c:	e0bff917 	ldw	r2,-28(fp)
   82240:	10c0a315 	stw	r3,652(r2)
				cea->db_vsdb_hdmi.ycbcr444 = (c[6] & 0x08) ? 1 : 0;
   82244:	e0bff117 	ldw	r2,-60(fp)
   82248:	10800184 	addi	r2,r2,6
   8224c:	10800003 	ldbu	r2,0(r2)
   82250:	10803fcc 	andi	r2,r2,255
   82254:	1080020c 	andi	r2,r2,8
   82258:	1004c03a 	cmpne	r2,r2,zero
   8225c:	10c03fcc 	andi	r3,r2,255
   82260:	e0bff917 	ldw	r2,-28(fp)
   82264:	10c0a615 	stw	r3,664(r2)
				cea->db_vsdb_hdmi.dvi_dual = (c[6] & 0x01) ? 1 : 0;
   82268:	e0bff117 	ldw	r2,-60(fp)
   8226c:	10800184 	addi	r2,r2,6
   82270:	10800003 	ldbu	r2,0(r2)
   82274:	10803fcc 	andi	r2,r2,255
   82278:	1080004c 	andi	r2,r2,1
   8227c:	1004c03a 	cmpne	r2,r2,zero
   82280:	10c03fcc 	andi	r3,r2,255
   82284:	e0bff917 	ldw	r2,-28(fp)
   82288:	10c0a715 	stw	r3,668(r2)
   8228c:	00000c06 	br	822c0 <edid_decode_cea+0x794>
			} else {
				cea->db_vsdb_hdmi.ai = 0;
   82290:	e0bff917 	ldw	r2,-28(fp)
   82294:	1000a215 	stw	zero,648(r2)
				cea->db_vsdb_hdmi.bpp48 = 0;
   82298:	e0bff917 	ldw	r2,-28(fp)
   8229c:	1000a515 	stw	zero,660(r2)
				cea->db_vsdb_hdmi.bpp36 = 0;
   822a0:	e0bff917 	ldw	r2,-28(fp)
   822a4:	1000a415 	stw	zero,656(r2)
				cea->db_vsdb_hdmi.bpp30 = 0;
   822a8:	e0bff917 	ldw	r2,-28(fp)
   822ac:	1000a315 	stw	zero,652(r2)
				cea->db_vsdb_hdmi.ycbcr444 = 0;
   822b0:	e0bff917 	ldw	r2,-28(fp)
   822b4:	1000a615 	stw	zero,664(r2)
				cea->db_vsdb_hdmi.dvi_dual = 0;
   822b8:	e0bff917 	ldw	r2,-28(fp)
   822bc:	1000a715 	stw	zero,668(r2)
			}

			if ((*c & 0x1f) >= 7) {
   822c0:	e0bff117 	ldw	r2,-60(fp)
   822c4:	10800003 	ldbu	r2,0(r2)
   822c8:	10803fcc 	andi	r2,r2,255
   822cc:	108007cc 	andi	r2,r2,31
   822d0:	108001d0 	cmplti	r2,r2,7
   822d4:	1000081e 	bne	r2,zero,822f8 <edid_decode_cea+0x7cc>
				cea->db_vsdb_hdmi.max_tmds_clk = c[7] * 5;
   822d8:	e0bff117 	ldw	r2,-60(fp)
   822dc:	108001c4 	addi	r2,r2,7
   822e0:	10800003 	ldbu	r2,0(r2)
   822e4:	10803fcc 	andi	r2,r2,255
   822e8:	10c00164 	muli	r3,r2,5
   822ec:	e0bff917 	ldw	r2,-28(fp)
   822f0:	10c0ab15 	stw	r3,684(r2)
   822f4:	00000206 	br	82300 <edid_decode_cea+0x7d4>
			} else {
				cea->db_vsdb_hdmi.max_tmds_clk = 0;
   822f8:	e0bff917 	ldw	r2,-28(fp)
   822fc:	1000ab15 	stw	zero,684(r2)
			}

			cea->db_vsdb_hdmi.p_latency = 0;
   82300:	e0bff917 	ldw	r2,-28(fp)
   82304:	1000a815 	stw	zero,672(r2)
			cea->db_vsdb_hdmi.i_latency = 0;
   82308:	e0bff917 	ldw	r2,-28(fp)
   8230c:	1000a915 	stw	zero,676(r2)
			cea->db_vsdb_hdmi.hdmi_video = 0;
   82310:	e0bff917 	ldw	r2,-28(fp)
   82314:	1000aa15 	stw	zero,680(r2)

			cea->db_vsdb_hdmi.vid_latency_p = 0;
   82318:	e0bff917 	ldw	r2,-28(fp)
   8231c:	1000ac15 	stw	zero,688(r2)
			cea->db_vsdb_hdmi.aud_latency_p = 0;
   82320:	e0bff917 	ldw	r2,-28(fp)
   82324:	1000ad15 	stw	zero,692(r2)
			cea->db_vsdb_hdmi.vid_latency_i = 0;
   82328:	e0bff917 	ldw	r2,-28(fp)
   8232c:	1000ae15 	stw	zero,696(r2)
			cea->db_vsdb_hdmi.aud_latency_i = 0;
   82330:	e0bff917 	ldw	r2,-28(fp)
   82334:	1000af15 	stw	zero,700(r2)

			if ((*c & 0x1f) >= 8) {
   82338:	e0bff117 	ldw	r2,-60(fp)
   8233c:	10800003 	ldbu	r2,0(r2)
   82340:	10803fcc 	andi	r2,r2,255
   82344:	108007cc 	andi	r2,r2,31
   82348:	10800210 	cmplti	r2,r2,8
   8234c:	1000421e 	bne	r2,zero,82458 <edid_decode_cea+0x92c>
				u8 c8 = c[8];
   82350:	e0bff117 	ldw	r2,-60(fp)
   82354:	10800203 	ldbu	r2,8(r2)
   82358:	e0bffb05 	stb	r2,-20(fp)
				hv = &c[9];
   8235c:	e0bff117 	ldw	r2,-60(fp)
   82360:	10800244 	addi	r2,r2,9
   82364:	e0bff215 	stw	r2,-56(fp)
				if (c8 & 0x80) {
   82368:	e0bffb03 	ldbu	r2,-20(fp)
   8236c:	10803fcc 	andi	r2,r2,255
   82370:	1080201c 	xori	r2,r2,128
   82374:	10bfe004 	addi	r2,r2,-128
   82378:	1000170e 	bge	r2,zero,823d8 <edid_decode_cea+0x8ac>
					cea->db_vsdb_hdmi.p_latency = 1;
   8237c:	e0bff917 	ldw	r2,-28(fp)
   82380:	00c00044 	movi	r3,1
   82384:	10c0a815 	stw	r3,672(r2)
					cea->db_vsdb_hdmi.vid_latency_p = (hv[0] - 1) * 2;  // (ms)
   82388:	e0bff217 	ldw	r2,-56(fp)
   8238c:	10800003 	ldbu	r2,0(r2)
   82390:	10803fcc 	andi	r2,r2,255
   82394:	10bfffc4 	addi	r2,r2,-1
   82398:	1085883a 	add	r2,r2,r2
   8239c:	1007883a 	mov	r3,r2
   823a0:	e0bff917 	ldw	r2,-28(fp)
   823a4:	10c0ac15 	stw	r3,688(r2)
					cea->db_vsdb_hdmi.aud_latency_p = (hv[1] - 1) * 2;  // (ms)
   823a8:	e0bff217 	ldw	r2,-56(fp)
   823ac:	10800044 	addi	r2,r2,1
   823b0:	10800003 	ldbu	r2,0(r2)
   823b4:	10803fcc 	andi	r2,r2,255
   823b8:	10bfffc4 	addi	r2,r2,-1
   823bc:	1085883a 	add	r2,r2,r2
   823c0:	1007883a 	mov	r3,r2
   823c4:	e0bff917 	ldw	r2,-28(fp)
   823c8:	10c0ad15 	stw	r3,692(r2)
					hv += 2;
   823cc:	e0bff217 	ldw	r2,-56(fp)
   823d0:	10800084 	addi	r2,r2,2
   823d4:	e0bff215 	stw	r2,-56(fp)
				}
				if (c8 & 0x40) {
   823d8:	e0bffb03 	ldbu	r2,-20(fp)
   823dc:	1080100c 	andi	r2,r2,64
   823e0:	10001726 	beq	r2,zero,82440 <edid_decode_cea+0x914>
					cea->db_vsdb_hdmi.i_latency = 1;
   823e4:	e0bff917 	ldw	r2,-28(fp)
   823e8:	00c00044 	movi	r3,1
   823ec:	10c0a915 	stw	r3,676(r2)
					cea->db_vsdb_hdmi.vid_latency_i = (hv[0] - 1) * 2;  // (ms)
   823f0:	e0bff217 	ldw	r2,-56(fp)
   823f4:	10800003 	ldbu	r2,0(r2)
   823f8:	10803fcc 	andi	r2,r2,255
   823fc:	10bfffc4 	addi	r2,r2,-1
   82400:	1085883a 	add	r2,r2,r2
   82404:	1007883a 	mov	r3,r2
   82408:	e0bff917 	ldw	r2,-28(fp)
   8240c:	10c0ae15 	stw	r3,696(r2)
					cea->db_vsdb_hdmi.aud_latency_i = (hv[1] - 1) * 2;  // (ms)
   82410:	e0bff217 	ldw	r2,-56(fp)
   82414:	10800044 	addi	r2,r2,1
   82418:	10800003 	ldbu	r2,0(r2)
   8241c:	10803fcc 	andi	r2,r2,255
   82420:	10bfffc4 	addi	r2,r2,-1
   82424:	1085883a 	add	r2,r2,r2
   82428:	1007883a 	mov	r3,r2
   8242c:	e0bff917 	ldw	r2,-28(fp)
   82430:	10c0af15 	stw	r3,700(r2)
					hv += 2;
   82434:	e0bff217 	ldw	r2,-56(fp)
   82438:	10800084 	addi	r2,r2,2
   8243c:	e0bff215 	stw	r2,-56(fp)
				}
				if (c8 & 0x20) {
   82440:	e0bffb03 	ldbu	r2,-20(fp)
   82444:	1080080c 	andi	r2,r2,32
   82448:	10000326 	beq	r2,zero,82458 <edid_decode_cea+0x92c>
					cea->db_vsdb_hdmi.hdmi_video = 1;
   8244c:	e0bff917 	ldw	r2,-28(fp)
   82450:	00c00044 	movi	r3,1
   82454:	10c0aa15 	stw	r3,680(r2)
				}
			}

			if (cea->db_vsdb_hdmi.hdmi_video > 0) {
   82458:	e0bff917 	ldw	r2,-28(fp)
   8245c:	1080aa17 	ldw	r2,680(r2)
   82460:	0080270e 	bge	zero,r2,82500 <edid_decode_cea+0x9d4>
				cea->db_vsdb_hdmi.present_3d = hv[0] & 0x80 ? 1 : 0;
   82464:	e0bff217 	ldw	r2,-56(fp)
   82468:	10800003 	ldbu	r2,0(r2)
   8246c:	10803fcc 	andi	r2,r2,255
   82470:	1004d1fa 	srli	r2,r2,7
   82474:	10c03fcc 	andi	r3,r2,255
   82478:	e0bff917 	ldw	r2,-28(fp)
   8247c:	10c0b015 	stw	r3,704(r2)
				cea->db_vsdb_hdmi.multi_3d = (hv[0] >> 5) & 0x03;
   82480:	e0bff217 	ldw	r2,-56(fp)
   82484:	10800003 	ldbu	r2,0(r2)
   82488:	10803fcc 	andi	r2,r2,255
   8248c:	1004d17a 	srli	r2,r2,5
   82490:	10803fcc 	andi	r2,r2,255
   82494:	10c000cc 	andi	r3,r2,3
   82498:	e0bff917 	ldw	r2,-28(fp)
   8249c:	10c0b115 	stw	r3,708(r2)
				cea->db_vsdb_hdmi.image_size = (hv[0] >> 3) & 0x03;
   824a0:	e0bff217 	ldw	r2,-56(fp)
   824a4:	10800003 	ldbu	r2,0(r2)
   824a8:	10803fcc 	andi	r2,r2,255
   824ac:	1004d0fa 	srli	r2,r2,3
   824b0:	10803fcc 	andi	r2,r2,255
   824b4:	10c000cc 	andi	r3,r2,3
   824b8:	e0bff917 	ldw	r2,-28(fp)
   824bc:	10c0b215 	stw	r3,712(r2)
				cea->db_vsdb_hdmi.hdmi_xx_len = hv[1] >> 5;
   824c0:	e0bff217 	ldw	r2,-56(fp)
   824c4:	10800044 	addi	r2,r2,1
   824c8:	10800003 	ldbu	r2,0(r2)
   824cc:	10803fcc 	andi	r2,r2,255
   824d0:	1004d17a 	srli	r2,r2,5
   824d4:	10c03fcc 	andi	r3,r2,255
   824d8:	e0bff917 	ldw	r2,-28(fp)
   824dc:	10c0b315 	stw	r3,716(r2)
				cea->db_vsdb_hdmi.hdmi_3d_len = hv[1] & 0x1f;
   824e0:	e0bff217 	ldw	r2,-56(fp)
   824e4:	10800044 	addi	r2,r2,1
   824e8:	10800003 	ldbu	r2,0(r2)
   824ec:	10803fcc 	andi	r2,r2,255
   824f0:	10c007cc 	andi	r3,r2,31
   824f4:	e0bff917 	ldw	r2,-28(fp)
   824f8:	10c0b415 	stw	r3,720(r2)
   824fc:	00000a06 	br	82528 <edid_decode_cea+0x9fc>
			} else {
				cea->db_vsdb_hdmi.present_3d = 0;
   82500:	e0bff917 	ldw	r2,-28(fp)
   82504:	1000b015 	stw	zero,704(r2)
				cea->db_vsdb_hdmi.multi_3d = 0;
   82508:	e0bff917 	ldw	r2,-28(fp)
   8250c:	1000b115 	stw	zero,708(r2)
				cea->db_vsdb_hdmi.image_size = 0;
   82510:	e0bff917 	ldw	r2,-28(fp)
   82514:	1000b215 	stw	zero,712(r2)
				cea->db_vsdb_hdmi.hdmi_xx_len = 0;
   82518:	e0bff917 	ldw	r2,-28(fp)
   8251c:	1000b315 	stw	zero,716(r2)
				cea->db_vsdb_hdmi.hdmi_3d_len = 0;
   82520:	e0bff917 	ldw	r2,-28(fp)
   82524:	1000b415 	stw	zero,720(r2)
			}

			if (cea->db_vsdb_hdmi.hdmi_3d_len > 0) {
   82528:	e0bff917 	ldw	r2,-28(fp)
   8252c:	1080b417 	ldw	r2,720(r2)
   82530:	0080940e 	bge	zero,r2,82784 <edid_decode_cea+0xc58>
				u8 *d = &hv[2 + cea->db_vsdb_hdmi.hdmi_xx_len];  // data pointer starting from 3D_Structure_ALL_15...8
   82534:	e0bff917 	ldw	r2,-28(fp)
   82538:	1080b317 	ldw	r2,716(r2)
   8253c:	10800084 	addi	r2,r2,2
   82540:	e0fff217 	ldw	r3,-56(fp)
   82544:	1885883a 	add	r2,r3,r2
   82548:	e0bffc15 	stw	r2,-16(fp)
				u8 *vic = 0;	// data pointer starting from 2D_VIC_Order_1 + 3D_Structure_1
   8254c:	e03ff515 	stw	zero,-44(fp)
				int vic_l = 0;  // remaining 3D size starting from 2D_VIC_Order_1 + 3D_Structure_1
   82550:	e03ff615 	stw	zero,-40(fp)

				if (cea->db_vsdb_hdmi.multi_3d == 2) {
   82554:	e0bff917 	ldw	r2,-28(fp)
   82558:	1080b117 	ldw	r2,708(r2)
   8255c:	10800098 	cmpnei	r2,r2,2
   82560:	10001f1e 	bne	r2,zero,825e0 <edid_decode_cea+0xab4>
					cea->db_vsdb_hdmi.struct_all_3d = (d[0] << 8) | d[1];
   82564:	e0bffc17 	ldw	r2,-16(fp)
   82568:	10800003 	ldbu	r2,0(r2)
   8256c:	10803fcc 	andi	r2,r2,255
   82570:	1006923a 	slli	r3,r2,8
   82574:	e0bffc17 	ldw	r2,-16(fp)
   82578:	10800044 	addi	r2,r2,1
   8257c:	10800003 	ldbu	r2,0(r2)
   82580:	10803fcc 	andi	r2,r2,255
   82584:	1886b03a 	or	r3,r3,r2
   82588:	e0bff917 	ldw	r2,-28(fp)
   8258c:	10c0b515 	stw	r3,724(r2)
					cea->db_vsdb_hdmi.mask_3d = (d[2] << 8) | d[3];
   82590:	e0bffc17 	ldw	r2,-16(fp)
   82594:	10800084 	addi	r2,r2,2
   82598:	10800003 	ldbu	r2,0(r2)
   8259c:	10803fcc 	andi	r2,r2,255
   825a0:	1006923a 	slli	r3,r2,8
   825a4:	e0bffc17 	ldw	r2,-16(fp)
   825a8:	108000c4 	addi	r2,r2,3
   825ac:	10800003 	ldbu	r2,0(r2)
   825b0:	10803fcc 	andi	r2,r2,255
   825b4:	1886b03a 	or	r3,r3,r2
   825b8:	e0bff917 	ldw	r2,-28(fp)
   825bc:	10c0b615 	stw	r3,728(r2)
					vic = &d[4];
   825c0:	e0bffc17 	ldw	r2,-16(fp)
   825c4:	10800104 	addi	r2,r2,4
   825c8:	e0bff515 	stw	r2,-44(fp)
					vic_l = cea->db_vsdb_hdmi.hdmi_3d_len - 4;
   825cc:	e0bff917 	ldw	r2,-28(fp)
   825d0:	1080b417 	ldw	r2,720(r2)
   825d4:	10bfff04 	addi	r2,r2,-4
   825d8:	e0bff615 	stw	r2,-40(fp)
   825dc:	00001d06 	br	82654 <edid_decode_cea+0xb28>
				} else if (cea->db_vsdb_hdmi.multi_3d == 1) {
   825e0:	e0bff917 	ldw	r2,-28(fp)
   825e4:	1080b117 	ldw	r2,708(r2)
   825e8:	10800058 	cmpnei	r2,r2,1
   825ec:	1000151e 	bne	r2,zero,82644 <edid_decode_cea+0xb18>
					cea->db_vsdb_hdmi.struct_all_3d = (d[0] << 8) | d[1];
   825f0:	e0bffc17 	ldw	r2,-16(fp)
   825f4:	10800003 	ldbu	r2,0(r2)
   825f8:	10803fcc 	andi	r2,r2,255
   825fc:	1006923a 	slli	r3,r2,8
   82600:	e0bffc17 	ldw	r2,-16(fp)
   82604:	10800044 	addi	r2,r2,1
   82608:	10800003 	ldbu	r2,0(r2)
   8260c:	10803fcc 	andi	r2,r2,255
   82610:	1886b03a 	or	r3,r3,r2
   82614:	e0bff917 	ldw	r2,-28(fp)
   82618:	10c0b515 	stw	r3,724(r2)
					cea->db_vsdb_hdmi.mask_3d = 0;
   8261c:	e0bff917 	ldw	r2,-28(fp)
   82620:	1000b615 	stw	zero,728(r2)
					vic = &d[2];
   82624:	e0bffc17 	ldw	r2,-16(fp)
   82628:	10800084 	addi	r2,r2,2
   8262c:	e0bff515 	stw	r2,-44(fp)
					vic_l = cea->db_vsdb_hdmi.hdmi_3d_len - 2;
   82630:	e0bff917 	ldw	r2,-28(fp)
   82634:	1080b417 	ldw	r2,720(r2)
   82638:	10bfff84 	addi	r2,r2,-2
   8263c:	e0bff615 	stw	r2,-40(fp)
   82640:	00000406 	br	82654 <edid_decode_cea+0xb28>
				} else {
					cea->db_vsdb_hdmi.struct_all_3d = 0;
   82644:	e0bff917 	ldw	r2,-28(fp)
   82648:	1000b515 	stw	zero,724(r2)
					cea->db_vsdb_hdmi.mask_3d = 0;
   8264c:	e0bff917 	ldw	r2,-28(fp)
   82650:	1000b615 	stw	zero,728(r2)
				}

				cea->db_vsdb_hdmi.nr_vic_3d = 0;
   82654:	e0bff917 	ldw	r2,-28(fp)
   82658:	1000b715 	stw	zero,732(r2)
				while (vic_l > 0) {
   8265c:	00004606 	br	82778 <edid_decode_cea+0xc4c>
					cea->db_vsdb_hdmi.vic_3d[cea->db_vsdb_hdmi.nr_vic_3d].vic_2d = vic[0] >> 4;
   82660:	e0bff917 	ldw	r2,-28(fp)
   82664:	1080b717 	ldw	r2,732(r2)
   82668:	e0fff517 	ldw	r3,-44(fp)
   8266c:	18c00003 	ldbu	r3,0(r3)
   82670:	18c03fcc 	andi	r3,r3,255
   82674:	1806d13a 	srli	r3,r3,4
   82678:	18c03fcc 	andi	r3,r3,255
   8267c:	e13ff917 	ldw	r4,-28(fp)
   82680:	10800324 	muli	r2,r2,12
   82684:	2085883a 	add	r2,r4,r2
   82688:	1080b804 	addi	r2,r2,736
   8268c:	10c00015 	stw	r3,0(r2)
					cea->db_vsdb_hdmi.vic_3d[cea->db_vsdb_hdmi.nr_vic_3d].struct_3d = vic[0] & 0x0f;
   82690:	e0bff917 	ldw	r2,-28(fp)
   82694:	1080b717 	ldw	r2,732(r2)
   82698:	e0fff517 	ldw	r3,-44(fp)
   8269c:	18c00003 	ldbu	r3,0(r3)
   826a0:	18c03fcc 	andi	r3,r3,255
   826a4:	18c003cc 	andi	r3,r3,15
   826a8:	e13ff917 	ldw	r4,-28(fp)
   826ac:	10800324 	muli	r2,r2,12
   826b0:	2085883a 	add	r2,r4,r2
   826b4:	1080b904 	addi	r2,r2,740
   826b8:	10c00015 	stw	r3,0(r2)
					if (cea->db_vsdb_hdmi.vic_3d[cea->db_vsdb_hdmi.nr_vic_3d].struct_3d >= 0x08) {
   826bc:	e0bff917 	ldw	r2,-28(fp)
   826c0:	1080b717 	ldw	r2,732(r2)
   826c4:	e0fff917 	ldw	r3,-28(fp)
   826c8:	10800324 	muli	r2,r2,12
   826cc:	1885883a 	add	r2,r3,r2
   826d0:	1080b904 	addi	r2,r2,740
   826d4:	10800017 	ldw	r2,0(r2)
   826d8:	10800210 	cmplti	r2,r2,8
   826dc:	1000141e 	bne	r2,zero,82730 <edid_decode_cea+0xc04>
						cea->db_vsdb_hdmi.vic_3d[cea->db_vsdb_hdmi.nr_vic_3d].detail_3d = vic[1] >> 4;
   826e0:	e0bff917 	ldw	r2,-28(fp)
   826e4:	1080b717 	ldw	r2,732(r2)
   826e8:	e0fff517 	ldw	r3,-44(fp)
   826ec:	18c00044 	addi	r3,r3,1
   826f0:	18c00003 	ldbu	r3,0(r3)
   826f4:	18c03fcc 	andi	r3,r3,255
   826f8:	1806d13a 	srli	r3,r3,4
   826fc:	18c03fcc 	andi	r3,r3,255
   82700:	e13ff917 	ldw	r4,-28(fp)
   82704:	10800324 	muli	r2,r2,12
   82708:	2085883a 	add	r2,r4,r2
   8270c:	1080ba04 	addi	r2,r2,744
   82710:	10c00015 	stw	r3,0(r2)
						vic += 2;
   82714:	e0bff517 	ldw	r2,-44(fp)
   82718:	10800084 	addi	r2,r2,2
   8271c:	e0bff515 	stw	r2,-44(fp)
						vic_l -= 2;
   82720:	e0bff617 	ldw	r2,-40(fp)
   82724:	10bfff84 	addi	r2,r2,-2
   82728:	e0bff615 	stw	r2,-40(fp)
   8272c:	00000d06 	br	82764 <edid_decode_cea+0xc38>
					} else {
						cea->db_vsdb_hdmi.vic_3d[cea->db_vsdb_hdmi.nr_vic_3d].detail_3d = 0;
   82730:	e0bff917 	ldw	r2,-28(fp)
   82734:	1080b717 	ldw	r2,732(r2)
   82738:	e0fff917 	ldw	r3,-28(fp)
   8273c:	10800324 	muli	r2,r2,12
   82740:	1885883a 	add	r2,r3,r2
   82744:	1080ba04 	addi	r2,r2,744
   82748:	10000015 	stw	zero,0(r2)
						++vic;
   8274c:	e0bff517 	ldw	r2,-44(fp)
   82750:	10800044 	addi	r2,r2,1
   82754:	e0bff515 	stw	r2,-44(fp)
						--vic_l;
   82758:	e0bff617 	ldw	r2,-40(fp)
   8275c:	10bfffc4 	addi	r2,r2,-1
   82760:	e0bff615 	stw	r2,-40(fp)
					}
					++cea->db_vsdb_hdmi.nr_vic_3d;
   82764:	e0bff917 	ldw	r2,-28(fp)
   82768:	1080b717 	ldw	r2,732(r2)
   8276c:	10c00044 	addi	r3,r2,1
   82770:	e0bff917 	ldw	r2,-28(fp)
   82774:	10c0b715 	stw	r3,732(r2)
					cea->db_vsdb_hdmi.struct_all_3d = 0;
					cea->db_vsdb_hdmi.mask_3d = 0;
				}

				cea->db_vsdb_hdmi.nr_vic_3d = 0;
				while (vic_l > 0) {
   82778:	e0bff617 	ldw	r2,-40(fp)
   8277c:	00bfb816 	blt	zero,r2,82660 <edid_decode_cea+0xb34>
   82780:	00000406 	br	82794 <edid_decode_cea+0xc68>
						--vic_l;
					}
					++cea->db_vsdb_hdmi.nr_vic_3d;
				}
			} else {
				cea->db_vsdb_hdmi.struct_all_3d = 0;
   82784:	e0bff917 	ldw	r2,-28(fp)
   82788:	1000b515 	stw	zero,724(r2)
				cea->db_vsdb_hdmi.mask_3d = 0;
   8278c:	e0bff917 	ldw	r2,-28(fp)
   82790:	1000b615 	stw	zero,728(r2)
			}

			c += (*c & 0x1f) + 1;
   82794:	e0bff117 	ldw	r2,-60(fp)
   82798:	10800003 	ldbu	r2,0(r2)
   8279c:	10803fcc 	andi	r2,r2,255
   827a0:	108007cc 	andi	r2,r2,31
   827a4:	10800044 	addi	r2,r2,1
   827a8:	e0fff117 	ldw	r3,-60(fp)
   827ac:	1885883a 	add	r2,r3,r2
   827b0:	e0bff115 	stw	r2,-60(fp)
			break;
   827b4:	0000da06 	br	82b20 <edid_decode_cea+0xff4>

		case CEA_DB_SPEAKER:
			cea->dbc_tags[cea->nr_dbcs++] = CEA_DB_SPEAKER;
   827b8:	e0bff917 	ldw	r2,-28(fp)
   827bc:	10800717 	ldw	r2,28(r2)
   827c0:	e0fff917 	ldw	r3,-28(fp)
   827c4:	1887883a 	add	r3,r3,r2
   827c8:	18c00804 	addi	r3,r3,32
   827cc:	01000104 	movi	r4,4
   827d0:	19000005 	stb	r4,0(r3)
   827d4:	10c00044 	addi	r3,r2,1
   827d8:	e0bff917 	ldw	r2,-28(fp)
   827dc:	10c00715 	stw	r3,28(r2)
			cea->db_speaker.designation = (int)(c[1] & 0x7f);
   827e0:	e0bff117 	ldw	r2,-60(fp)
   827e4:	10800044 	addi	r2,r2,1
   827e8:	10800003 	ldbu	r2,0(r2)
   827ec:	10803fcc 	andi	r2,r2,255
   827f0:	10c01fcc 	andi	r3,r2,127
   827f4:	e0bff917 	ldw	r2,-28(fp)
   827f8:	10c09b15 	stw	r3,620(r2)
			c += (*c & 0x1f) + 1;
   827fc:	e0bff117 	ldw	r2,-60(fp)
   82800:	10800003 	ldbu	r2,0(r2)
   82804:	10803fcc 	andi	r2,r2,255
   82808:	108007cc 	andi	r2,r2,31
   8280c:	10800044 	addi	r2,r2,1
   82810:	e0fff117 	ldw	r3,-60(fp)
   82814:	1885883a 	add	r2,r3,r2
   82818:	e0bff115 	stw	r2,-60(fp)
			break;
   8281c:	0000c006 	br	82b20 <edid_decode_cea+0xff4>

		case CEA_DB_DTC:
			cea->dbc_tags[cea->nr_dbcs++] = CEA_DB_DTC;
   82820:	e0bff917 	ldw	r2,-28(fp)
   82824:	10800717 	ldw	r2,28(r2)
   82828:	e0fff917 	ldw	r3,-28(fp)
   8282c:	1887883a 	add	r3,r3,r2
   82830:	18c00804 	addi	r3,r3,32
   82834:	01000144 	movi	r4,5
   82838:	19000005 	stb	r4,0(r3)
   8283c:	10c00044 	addi	r3,r2,1
   82840:	e0bff917 	ldw	r2,-28(fp)
   82844:	10c00715 	stw	r3,28(r2)
			c += (*c & 0x1f) + 1;
   82848:	e0bff117 	ldw	r2,-60(fp)
   8284c:	10800003 	ldbu	r2,0(r2)
   82850:	10803fcc 	andi	r2,r2,255
   82854:	108007cc 	andi	r2,r2,31
   82858:	10800044 	addi	r2,r2,1
   8285c:	e0fff117 	ldw	r3,-60(fp)
   82860:	1885883a 	add	r2,r3,r2
   82864:	e0bff115 	stw	r2,-60(fp)
			break;
   82868:	0000ad06 	br	82b20 <edid_decode_cea+0xff4>

		case CEA_DB_EXTENDED:
			switch (c[1]) {
   8286c:	e0bff117 	ldw	r2,-60(fp)
   82870:	10800044 	addi	r2,r2,1
   82874:	10800003 	ldbu	r2,0(r2)
   82878:	10803fcc 	andi	r2,r2,255
   8287c:	10c004e8 	cmpgeui	r3,r2,19
   82880:	1800911e 	bne	r3,zero,82ac8 <edid_decode_cea+0xf9c>
   82884:	1085883a 	add	r2,r2,r2
   82888:	1087883a 	add	r3,r2,r2
   8288c:	00800234 	movhi	r2,8
   82890:	108a2804 	addi	r2,r2,10400
   82894:	1885883a 	add	r2,r3,r2
   82898:	10800017 	ldw	r2,0(r2)
   8289c:	1000683a 	jmp	r2
   828a0:	000828ec 	andhi	zero,zero,8355
   828a4:	00082990 	cmplti	zero,zero,8358
   828a8:	000829b0 	cmpltui	zero,zero,8358
   828ac:	000829d0 	cmplti	zero,zero,8359
   828b0:	000829f0 	cmpltui	zero,zero,8359
   828b4:	00082a10 	cmplti	zero,zero,8360
   828b8:	00082ac8 	cmpgei	zero,zero,8363
   828bc:	00082ac8 	cmpgei	zero,zero,8363
   828c0:	00082ac8 	cmpgei	zero,zero,8363
   828c4:	00082ac8 	cmpgei	zero,zero,8363
   828c8:	00082ac8 	cmpgei	zero,zero,8363
   828cc:	00082ac8 	cmpgei	zero,zero,8363
   828d0:	00082ac8 	cmpgei	zero,zero,8363
   828d4:	00082ac8 	cmpgei	zero,zero,8363
   828d8:	00082ac8 	cmpgei	zero,zero,8363
   828dc:	00082ac8 	cmpgei	zero,zero,8363
   828e0:	00082a68 	cmpgeui	zero,zero,8361
   828e4:	00082a88 	cmpgei	zero,zero,8362
   828e8:	00082aa8 	cmpgeui	zero,zero,8362
			case CEA_DBE_VIDEO_CAP:
				cea->dbe_tags[cea->nr_dbcs] = CEA_DBE_VIDEO_CAP;
   828ec:	e0bff917 	ldw	r2,-28(fp)
   828f0:	10800717 	ldw	r2,28(r2)
   828f4:	e0fff917 	ldw	r3,-28(fp)
   828f8:	1885883a 	add	r2,r3,r2
   828fc:	10801704 	addi	r2,r2,92
   82900:	10000085 	stb	zero,2(r2)
				cea->db_vcdb.quant_range_sel = (c[2] & 0x40) ? 1 : 0;
   82904:	e0bff117 	ldw	r2,-60(fp)
   82908:	10800084 	addi	r2,r2,2
   8290c:	10800003 	ldbu	r2,0(r2)
   82910:	10803fcc 	andi	r2,r2,255
   82914:	1080100c 	andi	r2,r2,64
   82918:	1004c03a 	cmpne	r2,r2,zero
   8291c:	10c03fcc 	andi	r3,r2,255
   82920:	e0bff917 	ldw	r2,-28(fp)
   82924:	10c0ea15 	stw	r3,936(r2)
				cea->db_vcdb.pt_scan_behavior = (int)((c[2] >> 4) & 0x03);
   82928:	e0bff117 	ldw	r2,-60(fp)
   8292c:	10800084 	addi	r2,r2,2
   82930:	10800003 	ldbu	r2,0(r2)
   82934:	10803fcc 	andi	r2,r2,255
   82938:	1004d13a 	srli	r2,r2,4
   8293c:	10803fcc 	andi	r2,r2,255
   82940:	10c000cc 	andi	r3,r2,3
   82944:	e0bff917 	ldw	r2,-28(fp)
   82948:	10c0eb15 	stw	r3,940(r2)
				cea->db_vcdb.it_scan_behavior = (int)((c[2] >> 2) & 0x03);
   8294c:	e0bff117 	ldw	r2,-60(fp)
   82950:	10800084 	addi	r2,r2,2
   82954:	10800003 	ldbu	r2,0(r2)
   82958:	10803fcc 	andi	r2,r2,255
   8295c:	1004d0ba 	srli	r2,r2,2
   82960:	10803fcc 	andi	r2,r2,255
   82964:	10c000cc 	andi	r3,r2,3
   82968:	e0bff917 	ldw	r2,-28(fp)
   8296c:	10c0ec15 	stw	r3,944(r2)
				cea->db_vcdb.ce_scan_behavior = (int)(c[2] & 0x03);
   82970:	e0bff117 	ldw	r2,-60(fp)
   82974:	10800084 	addi	r2,r2,2
   82978:	10800003 	ldbu	r2,0(r2)
   8297c:	10803fcc 	andi	r2,r2,255
   82980:	10c000cc 	andi	r3,r2,3
   82984:	e0bff917 	ldw	r2,-28(fp)
   82988:	10c0ed15 	stw	r3,948(r2)
				break;
   8298c:	00004e06 	br	82ac8 <edid_decode_cea+0xf9c>
			case CEA_DBE_VIDEO_VENDOR:
				cea->dbe_tags[cea->nr_dbcs] = CEA_DBE_VIDEO_VENDOR;
   82990:	e0bff917 	ldw	r2,-28(fp)
   82994:	10800717 	ldw	r2,28(r2)
   82998:	e0fff917 	ldw	r3,-28(fp)
   8299c:	1885883a 	add	r2,r3,r2
   829a0:	10801704 	addi	r2,r2,92
   829a4:	00c00044 	movi	r3,1
   829a8:	10c00085 	stb	r3,2(r2)
				break;
   829ac:	00004606 	br	82ac8 <edid_decode_cea+0xf9c>
			case CEA_DBE_VIDEO_DDI:
				cea->dbe_tags[cea->nr_dbcs] = CEA_DBE_VIDEO_DDI;
   829b0:	e0bff917 	ldw	r2,-28(fp)
   829b4:	10800717 	ldw	r2,28(r2)
   829b8:	e0fff917 	ldw	r3,-28(fp)
   829bc:	1885883a 	add	r2,r3,r2
   829c0:	10801704 	addi	r2,r2,92
   829c4:	00c00084 	movi	r3,2
   829c8:	10c00085 	stb	r3,2(r2)
				break;
   829cc:	00003e06 	br	82ac8 <edid_decode_cea+0xf9c>
			case CEA_DBE_VIDEO_VESA:
				cea->dbe_tags[cea->nr_dbcs] = CEA_DBE_VIDEO_VESA;
   829d0:	e0bff917 	ldw	r2,-28(fp)
   829d4:	10800717 	ldw	r2,28(r2)
   829d8:	e0fff917 	ldw	r3,-28(fp)
   829dc:	1885883a 	add	r2,r3,r2
   829e0:	10801704 	addi	r2,r2,92
   829e4:	00c000c4 	movi	r3,3
   829e8:	10c00085 	stb	r3,2(r2)
				break;
   829ec:	00003606 	br	82ac8 <edid_decode_cea+0xf9c>
			case CEA_DBE_VIDEO_HDMI:
				cea->dbe_tags[cea->nr_dbcs] = CEA_DBE_VIDEO_HDMI;
   829f0:	e0bff917 	ldw	r2,-28(fp)
   829f4:	10800717 	ldw	r2,28(r2)
   829f8:	e0fff917 	ldw	r3,-28(fp)
   829fc:	1885883a 	add	r2,r3,r2
   82a00:	10801704 	addi	r2,r2,92
   82a04:	00c00104 	movi	r3,4
   82a08:	10c00085 	stb	r3,2(r2)
				break;
   82a0c:	00002e06 	br	82ac8 <edid_decode_cea+0xf9c>
			case CEA_DBE_COLORIMETRY:
				cea->dbe_tags[cea->nr_dbcs] = CEA_DBE_COLORIMETRY;
   82a10:	e0bff917 	ldw	r2,-28(fp)
   82a14:	10800717 	ldw	r2,28(r2)
   82a18:	e0fff917 	ldw	r3,-28(fp)
   82a1c:	1885883a 	add	r2,r3,r2
   82a20:	10801704 	addi	r2,r2,92
   82a24:	00c00144 	movi	r3,5
   82a28:	10c00085 	stb	r3,2(r2)
				cea->db_colorimetry.xvYCC = (int)(c[2] & 0x03);
   82a2c:	e0bff117 	ldw	r2,-60(fp)
   82a30:	10800084 	addi	r2,r2,2
   82a34:	10800003 	ldbu	r2,0(r2)
   82a38:	10803fcc 	andi	r2,r2,255
   82a3c:	10c000cc 	andi	r3,r2,3
   82a40:	e0bff917 	ldw	r2,-28(fp)
   82a44:	10c0e815 	stw	r3,928(r2)
				cea->db_colorimetry.metadata = (int)(c[3] & 0x07);
   82a48:	e0bff117 	ldw	r2,-60(fp)
   82a4c:	108000c4 	addi	r2,r2,3
   82a50:	10800003 	ldbu	r2,0(r2)
   82a54:	10803fcc 	andi	r2,r2,255
   82a58:	10c001cc 	andi	r3,r2,7
   82a5c:	e0bff917 	ldw	r2,-28(fp)
   82a60:	10c0e915 	stw	r3,932(r2)
				break;
   82a64:	00001806 	br	82ac8 <edid_decode_cea+0xf9c>
			case CEA_DBE_AUDIO_MISC:
				cea->dbe_tags[cea->nr_dbcs] = CEA_DBE_AUDIO_MISC;
   82a68:	e0bff917 	ldw	r2,-28(fp)
   82a6c:	10800717 	ldw	r2,28(r2)
   82a70:	e0fff917 	ldw	r3,-28(fp)
   82a74:	1885883a 	add	r2,r3,r2
   82a78:	10801704 	addi	r2,r2,92
   82a7c:	00c00404 	movi	r3,16
   82a80:	10c00085 	stb	r3,2(r2)
				break;
   82a84:	00001006 	br	82ac8 <edid_decode_cea+0xf9c>
			case CEA_DBE_AUDIO_VENDOR:
				cea->dbe_tags[cea->nr_dbcs] = CEA_DBE_AUDIO_VENDOR;
   82a88:	e0bff917 	ldw	r2,-28(fp)
   82a8c:	10800717 	ldw	r2,28(r2)
   82a90:	e0fff917 	ldw	r3,-28(fp)
   82a94:	1885883a 	add	r2,r3,r2
   82a98:	10801704 	addi	r2,r2,92
   82a9c:	00c00444 	movi	r3,17
   82aa0:	10c00085 	stb	r3,2(r2)
				break;
   82aa4:	00000806 	br	82ac8 <edid_decode_cea+0xf9c>
			case CEA_DBE_AUDIO_HDMI:
				cea->dbe_tags[cea->nr_dbcs] = CEA_DBE_AUDIO_HDMI;
   82aa8:	e0bff917 	ldw	r2,-28(fp)
   82aac:	10800717 	ldw	r2,28(r2)
   82ab0:	e0fff917 	ldw	r3,-28(fp)
   82ab4:	1885883a 	add	r2,r3,r2
   82ab8:	10801704 	addi	r2,r2,92
   82abc:	00c00484 	movi	r3,18
   82ac0:	10c00085 	stb	r3,2(r2)
				break;
   82ac4:	0001883a 	nop
			}

			cea->dbc_tags[cea->nr_dbcs++] = CEA_DB_EXTENDED;
   82ac8:	e0bff917 	ldw	r2,-28(fp)
   82acc:	10800717 	ldw	r2,28(r2)
   82ad0:	e0fff917 	ldw	r3,-28(fp)
   82ad4:	1887883a 	add	r3,r3,r2
   82ad8:	18c00804 	addi	r3,r3,32
   82adc:	010001c4 	movi	r4,7
   82ae0:	19000005 	stb	r4,0(r3)
   82ae4:	10c00044 	addi	r3,r2,1
   82ae8:	e0bff917 	ldw	r2,-28(fp)
   82aec:	10c00715 	stw	r3,28(r2)

			c += (*c & 0x1f) + 1;
   82af0:	e0bff117 	ldw	r2,-60(fp)
   82af4:	10800003 	ldbu	r2,0(r2)
   82af8:	10803fcc 	andi	r2,r2,255
   82afc:	108007cc 	andi	r2,r2,31
   82b00:	10800044 	addi	r2,r2,1
   82b04:	e0fff117 	ldw	r3,-60(fp)
   82b08:	1885883a 	add	r2,r3,r2
   82b0c:	e0bff115 	stw	r2,-60(fp)
			break;
   82b10:	00000306 	br	82b20 <edid_decode_cea+0xff4>

		default:
			c = dtd;
   82b14:	e0bff317 	ldw	r2,-52(fp)
   82b18:	e0bff115 	stw	r2,-60(fp)
			break;
   82b1c:	0001883a 	nop

	// data block collection
	c = &ext_bin[4];

	cea->nr_dbcs = 0;
	while (c < dtd) {
   82b20:	e0fff117 	ldw	r3,-60(fp)
   82b24:	e0bff317 	ldw	r2,-52(fp)
   82b28:	18bc6e36 	bltu	r3,r2,81ce4 <edid_decode_cea+0x1b8>
			break;
		}
	}

	// detail timing descriptor
	if (dtd == 0)
   82b2c:	e0bff317 	ldw	r2,-52(fp)
   82b30:	1000021e 	bne	r2,zero,82b3c <edid_decode_cea+0x1010>
		return 0;
   82b34:	0005883a 	mov	r2,zero
   82b38:	00022406 	br	833cc <edid_decode_cea+0x18a0>

	for (i = 0; i < (int)cea->nr_dtd; ++i) {
   82b3c:	e03ff415 	stw	zero,-48(fp)
   82b40:	00021d06 	br	833b8 <edid_decode_cea+0x188c>
		c = &dtd[18 * i];
   82b44:	e0bff417 	ldw	r2,-48(fp)
   82b48:	108004a4 	muli	r2,r2,18
   82b4c:	e0fff317 	ldw	r3,-52(fp)
   82b50:	1885883a 	add	r2,r3,r2
   82b54:	e0bff115 	stw	r2,-60(fp)

        cea->detailed_timing[i].pixel_clock = (((int)c[1] << 8) | (int)c[0]) * 10000;
   82b58:	e0bff117 	ldw	r2,-60(fp)
   82b5c:	10800044 	addi	r2,r2,1
   82b60:	10800003 	ldbu	r2,0(r2)
   82b64:	10803fcc 	andi	r2,r2,255
   82b68:	1006923a 	slli	r3,r2,8
   82b6c:	e0bff117 	ldw	r2,-60(fp)
   82b70:	10800003 	ldbu	r2,0(r2)
   82b74:	10803fcc 	andi	r2,r2,255
   82b78:	1884b03a 	or	r2,r3,r2
   82b7c:	10c9c424 	muli	r3,r2,10000
   82b80:	e13ff917 	ldw	r4,-28(fp)
   82b84:	e0bff417 	ldw	r2,-48(fp)
   82b88:	100491ba 	slli	r2,r2,6
   82b8c:	2085883a 	add	r2,r4,r2
   82b90:	1080ee04 	addi	r2,r2,952
   82b94:	10c00015 	stw	r3,0(r2)
        cea->detailed_timing[i].width = (((int)c[4] << 4) & 0xf00) | (int)c[2];
   82b98:	e0bff117 	ldw	r2,-60(fp)
   82b9c:	10800104 	addi	r2,r2,4
   82ba0:	10800003 	ldbu	r2,0(r2)
   82ba4:	10803fcc 	andi	r2,r2,255
   82ba8:	1004913a 	slli	r2,r2,4
   82bac:	10c3c00c 	andi	r3,r2,3840
   82bb0:	e0bff117 	ldw	r2,-60(fp)
   82bb4:	10800084 	addi	r2,r2,2
   82bb8:	10800003 	ldbu	r2,0(r2)
   82bbc:	10803fcc 	andi	r2,r2,255
   82bc0:	1886b03a 	or	r3,r3,r2
   82bc4:	e13ff917 	ldw	r4,-28(fp)
   82bc8:	e0bff417 	ldw	r2,-48(fp)
   82bcc:	100491ba 	slli	r2,r2,6
   82bd0:	2085883a 	add	r2,r4,r2
   82bd4:	1080ef04 	addi	r2,r2,956
   82bd8:	10c00015 	stw	r3,0(r2)
        cea->detailed_timing[i].height = (((int)c[7] << 4) & 0xf00) | (int)c[5];
   82bdc:	e0bff117 	ldw	r2,-60(fp)
   82be0:	108001c4 	addi	r2,r2,7
   82be4:	10800003 	ldbu	r2,0(r2)
   82be8:	10803fcc 	andi	r2,r2,255
   82bec:	1004913a 	slli	r2,r2,4
   82bf0:	10c3c00c 	andi	r3,r2,3840
   82bf4:	e0bff117 	ldw	r2,-60(fp)
   82bf8:	10800144 	addi	r2,r2,5
   82bfc:	10800003 	ldbu	r2,0(r2)
   82c00:	10803fcc 	andi	r2,r2,255
   82c04:	1886b03a 	or	r3,r3,r2
   82c08:	e13ff917 	ldw	r4,-28(fp)
   82c0c:	e0bff417 	ldw	r2,-48(fp)
   82c10:	108003c4 	addi	r2,r2,15
   82c14:	100491ba 	slli	r2,r2,6
   82c18:	2085883a 	add	r2,r4,r2
   82c1c:	10c00015 	stw	r3,0(r2)
        cea->detailed_timing[i].h_blank = (((int)c[4] << 8) & 0xf00) | (int)c[3];
   82c20:	e0bff117 	ldw	r2,-60(fp)
   82c24:	10800104 	addi	r2,r2,4
   82c28:	10800003 	ldbu	r2,0(r2)
   82c2c:	10803fcc 	andi	r2,r2,255
   82c30:	1004923a 	slli	r2,r2,8
   82c34:	10c3c00c 	andi	r3,r2,3840
   82c38:	e0bff117 	ldw	r2,-60(fp)
   82c3c:	108000c4 	addi	r2,r2,3
   82c40:	10800003 	ldbu	r2,0(r2)
   82c44:	10803fcc 	andi	r2,r2,255
   82c48:	1886b03a 	or	r3,r3,r2
   82c4c:	e13ff917 	ldw	r4,-28(fp)
   82c50:	e0bff417 	ldw	r2,-48(fp)
   82c54:	100491ba 	slli	r2,r2,6
   82c58:	2085883a 	add	r2,r4,r2
   82c5c:	1080f104 	addi	r2,r2,964
   82c60:	10c00015 	stw	r3,0(r2)
        cea->detailed_timing[i].v_blank = (((int)c[7] << 8) & 0xf00) | (int)c[6];
   82c64:	e0bff117 	ldw	r2,-60(fp)
   82c68:	108001c4 	addi	r2,r2,7
   82c6c:	10800003 	ldbu	r2,0(r2)
   82c70:	10803fcc 	andi	r2,r2,255
   82c74:	1004923a 	slli	r2,r2,8
   82c78:	10c3c00c 	andi	r3,r2,3840
   82c7c:	e0bff117 	ldw	r2,-60(fp)
   82c80:	10800184 	addi	r2,r2,6
   82c84:	10800003 	ldbu	r2,0(r2)
   82c88:	10803fcc 	andi	r2,r2,255
   82c8c:	1886b03a 	or	r3,r3,r2
   82c90:	e13ff917 	ldw	r4,-28(fp)
   82c94:	e0bff417 	ldw	r2,-48(fp)
   82c98:	100491ba 	slli	r2,r2,6
   82c9c:	2085883a 	add	r2,r4,r2
   82ca0:	1080f204 	addi	r2,r2,968
   82ca4:	10c00015 	stw	r3,0(r2)
        cea->detailed_timing[i].h_fp = (((int)c[11] << 2) & 0x300) | (int)c[8];
   82ca8:	e0bff117 	ldw	r2,-60(fp)
   82cac:	108002c4 	addi	r2,r2,11
   82cb0:	10800003 	ldbu	r2,0(r2)
   82cb4:	10803fcc 	andi	r2,r2,255
   82cb8:	1085883a 	add	r2,r2,r2
   82cbc:	1085883a 	add	r2,r2,r2
   82cc0:	10c0c00c 	andi	r3,r2,768
   82cc4:	e0bff117 	ldw	r2,-60(fp)
   82cc8:	10800204 	addi	r2,r2,8
   82ccc:	10800003 	ldbu	r2,0(r2)
   82cd0:	10803fcc 	andi	r2,r2,255
   82cd4:	1886b03a 	or	r3,r3,r2
   82cd8:	e13ff917 	ldw	r4,-28(fp)
   82cdc:	e0bff417 	ldw	r2,-48(fp)
   82ce0:	100491ba 	slli	r2,r2,6
   82ce4:	2085883a 	add	r2,r4,r2
   82ce8:	1080f304 	addi	r2,r2,972
   82cec:	10c00015 	stw	r3,0(r2)
        cea->detailed_timing[i].v_fp = (((int)c[11] << 2) & 0x30) | ((int)c[10] >> 4);
   82cf0:	e0bff117 	ldw	r2,-60(fp)
   82cf4:	108002c4 	addi	r2,r2,11
   82cf8:	10800003 	ldbu	r2,0(r2)
   82cfc:	10803fcc 	andi	r2,r2,255
   82d00:	1085883a 	add	r2,r2,r2
   82d04:	1085883a 	add	r2,r2,r2
   82d08:	10c00c0c 	andi	r3,r2,48
   82d0c:	e0bff117 	ldw	r2,-60(fp)
   82d10:	10800284 	addi	r2,r2,10
   82d14:	10800003 	ldbu	r2,0(r2)
   82d18:	10803fcc 	andi	r2,r2,255
   82d1c:	1004d13a 	srli	r2,r2,4
   82d20:	10803fcc 	andi	r2,r2,255
   82d24:	1886b03a 	or	r3,r3,r2
   82d28:	e13ff917 	ldw	r4,-28(fp)
   82d2c:	e0bff417 	ldw	r2,-48(fp)
   82d30:	100491ba 	slli	r2,r2,6
   82d34:	2085883a 	add	r2,r4,r2
   82d38:	1080f404 	addi	r2,r2,976
   82d3c:	10c00015 	stw	r3,0(r2)
        cea->detailed_timing[i].h_sync = (((int)c[11] << 4) & 0x300) | (int)c[9];
   82d40:	e0bff117 	ldw	r2,-60(fp)
   82d44:	108002c4 	addi	r2,r2,11
   82d48:	10800003 	ldbu	r2,0(r2)
   82d4c:	10803fcc 	andi	r2,r2,255
   82d50:	1004913a 	slli	r2,r2,4
   82d54:	10c0c00c 	andi	r3,r2,768
   82d58:	e0bff117 	ldw	r2,-60(fp)
   82d5c:	10800244 	addi	r2,r2,9
   82d60:	10800003 	ldbu	r2,0(r2)
   82d64:	10803fcc 	andi	r2,r2,255
   82d68:	1886b03a 	or	r3,r3,r2
   82d6c:	e13ff917 	ldw	r4,-28(fp)
   82d70:	e0bff417 	ldw	r2,-48(fp)
   82d74:	100491ba 	slli	r2,r2,6
   82d78:	2085883a 	add	r2,r4,r2
   82d7c:	1080f504 	addi	r2,r2,980
   82d80:	10c00015 	stw	r3,0(r2)
        cea->detailed_timing[i].v_sync = (((int)c[11] << 4) & 0x30) | ((int)c[10] & 0x0f);
   82d84:	e0bff117 	ldw	r2,-60(fp)
   82d88:	108002c4 	addi	r2,r2,11
   82d8c:	10800003 	ldbu	r2,0(r2)
   82d90:	10803fcc 	andi	r2,r2,255
   82d94:	1004913a 	slli	r2,r2,4
   82d98:	10c00c0c 	andi	r3,r2,48
   82d9c:	e0bff117 	ldw	r2,-60(fp)
   82da0:	10800284 	addi	r2,r2,10
   82da4:	10800003 	ldbu	r2,0(r2)
   82da8:	10803fcc 	andi	r2,r2,255
   82dac:	108003cc 	andi	r2,r2,15
   82db0:	1886b03a 	or	r3,r3,r2
   82db4:	e13ff917 	ldw	r4,-28(fp)
   82db8:	e0bff417 	ldw	r2,-48(fp)
   82dbc:	100491ba 	slli	r2,r2,6
   82dc0:	2085883a 	add	r2,r4,r2
   82dc4:	1080f604 	addi	r2,r2,984
   82dc8:	10c00015 	stw	r3,0(r2)
        cea->detailed_timing[i].h_size = (((int)c[14] << 4) & 0xf00) | (int)c[12];
   82dcc:	e0bff117 	ldw	r2,-60(fp)
   82dd0:	10800384 	addi	r2,r2,14
   82dd4:	10800003 	ldbu	r2,0(r2)
   82dd8:	10803fcc 	andi	r2,r2,255
   82ddc:	1004913a 	slli	r2,r2,4
   82de0:	10c3c00c 	andi	r3,r2,3840
   82de4:	e0bff117 	ldw	r2,-60(fp)
   82de8:	10800304 	addi	r2,r2,12
   82dec:	10800003 	ldbu	r2,0(r2)
   82df0:	10803fcc 	andi	r2,r2,255
   82df4:	1886b03a 	or	r3,r3,r2
   82df8:	e13ff917 	ldw	r4,-28(fp)
   82dfc:	e0bff417 	ldw	r2,-48(fp)
   82e00:	100491ba 	slli	r2,r2,6
   82e04:	2085883a 	add	r2,r4,r2
   82e08:	1080f704 	addi	r2,r2,988
   82e0c:	10c00015 	stw	r3,0(r2)
        cea->detailed_timing[i].v_size = (((int)c[14] << 8) & 0xf00) | (int)c[13];
   82e10:	e0bff117 	ldw	r2,-60(fp)
   82e14:	10800384 	addi	r2,r2,14
   82e18:	10800003 	ldbu	r2,0(r2)
   82e1c:	10803fcc 	andi	r2,r2,255
   82e20:	1004923a 	slli	r2,r2,8
   82e24:	10c3c00c 	andi	r3,r2,3840
   82e28:	e0bff117 	ldw	r2,-60(fp)
   82e2c:	10800344 	addi	r2,r2,13
   82e30:	10800003 	ldbu	r2,0(r2)
   82e34:	10803fcc 	andi	r2,r2,255
   82e38:	1886b03a 	or	r3,r3,r2
   82e3c:	e13ff917 	ldw	r4,-28(fp)
   82e40:	e0bff417 	ldw	r2,-48(fp)
   82e44:	100491ba 	slli	r2,r2,6
   82e48:	2085883a 	add	r2,r4,r2
   82e4c:	1080f804 	addi	r2,r2,992
   82e50:	10c00015 	stw	r3,0(r2)
        cea->detailed_timing[i].border_lr = (int)c[15];
   82e54:	e0bff117 	ldw	r2,-60(fp)
   82e58:	108003c4 	addi	r2,r2,15
   82e5c:	10800003 	ldbu	r2,0(r2)
   82e60:	10c03fcc 	andi	r3,r2,255
   82e64:	e13ff917 	ldw	r4,-28(fp)
   82e68:	e0bff417 	ldw	r2,-48(fp)
   82e6c:	100491ba 	slli	r2,r2,6
   82e70:	2085883a 	add	r2,r4,r2
   82e74:	1080f904 	addi	r2,r2,996
   82e78:	10c00015 	stw	r3,0(r2)
        cea->detailed_timing[i].border_tb = (int)c[16];
   82e7c:	e0bff117 	ldw	r2,-60(fp)
   82e80:	10800404 	addi	r2,r2,16
   82e84:	10800003 	ldbu	r2,0(r2)
   82e88:	10c03fcc 	andi	r3,r2,255
   82e8c:	e13ff917 	ldw	r4,-28(fp)
   82e90:	e0bff417 	ldw	r2,-48(fp)
   82e94:	100491ba 	slli	r2,r2,6
   82e98:	2085883a 	add	r2,r4,r2
   82e9c:	1080fa04 	addi	r2,r2,1000
   82ea0:	10c00015 	stw	r3,0(r2)

        cea->detailed_timing[i].interlaced = (c[17] & 0x80) ? 1 : 0;
   82ea4:	e0bff117 	ldw	r2,-60(fp)
   82ea8:	10800444 	addi	r2,r2,17
   82eac:	10800003 	ldbu	r2,0(r2)
   82eb0:	10803fcc 	andi	r2,r2,255
   82eb4:	1004d1fa 	srli	r2,r2,7
   82eb8:	10c03fcc 	andi	r3,r2,255
   82ebc:	e13ff917 	ldw	r4,-28(fp)
   82ec0:	e0bff417 	ldw	r2,-48(fp)
   82ec4:	100491ba 	slli	r2,r2,6
   82ec8:	2085883a 	add	r2,r4,r2
   82ecc:	1080fb04 	addi	r2,r2,1004
   82ed0:	10c00015 	stw	r3,0(r2)

        cea->detailed_timing[i].stereo = STEREO_NONE;
   82ed4:	e0fff917 	ldw	r3,-28(fp)
   82ed8:	e0bff417 	ldw	r2,-48(fp)
   82edc:	100491ba 	slli	r2,r2,6
   82ee0:	1885883a 	add	r2,r3,r2
   82ee4:	1080fc04 	addi	r2,r2,1008
   82ee8:	10000015 	stw	zero,0(r2)
		if ((c[17] & 0x61) == 0x20)
   82eec:	e0bff117 	ldw	r2,-60(fp)
   82ef0:	10800444 	addi	r2,r2,17
   82ef4:	10800003 	ldbu	r2,0(r2)
   82ef8:	10803fcc 	andi	r2,r2,255
   82efc:	1080184c 	andi	r2,r2,97
   82f00:	10800818 	cmpnei	r2,r2,32
   82f04:	10000d1e 	bne	r2,zero,82f3c <edid_decode_cea+0x1410>
			cea->detailed_timing[i].stereo |= STEREO_FIELD_SEQUENTIAL_RIGHT_SYNC;
   82f08:	e0fff917 	ldw	r3,-28(fp)
   82f0c:	e0bff417 	ldw	r2,-48(fp)
   82f10:	100491ba 	slli	r2,r2,6
   82f14:	1885883a 	add	r2,r3,r2
   82f18:	1080fc04 	addi	r2,r2,1008
   82f1c:	10800017 	ldw	r2,0(r2)
   82f20:	10c00094 	ori	r3,r2,2
   82f24:	e13ff917 	ldw	r4,-28(fp)
   82f28:	e0bff417 	ldw	r2,-48(fp)
   82f2c:	100491ba 	slli	r2,r2,6
   82f30:	2085883a 	add	r2,r4,r2
   82f34:	1080fc04 	addi	r2,r2,1008
   82f38:	10c00015 	stw	r3,0(r2)
		if ((c[17] & 0x61) == 0x40)
   82f3c:	e0bff117 	ldw	r2,-60(fp)
   82f40:	10800444 	addi	r2,r2,17
   82f44:	10800003 	ldbu	r2,0(r2)
   82f48:	10803fcc 	andi	r2,r2,255
   82f4c:	1080184c 	andi	r2,r2,97
   82f50:	10801018 	cmpnei	r2,r2,64
   82f54:	10000d1e 	bne	r2,zero,82f8c <edid_decode_cea+0x1460>
			cea->detailed_timing[i].stereo |= STEREO_FIELD_SEQUENTIAL_LEFT_SYNC;
   82f58:	e0fff917 	ldw	r3,-28(fp)
   82f5c:	e0bff417 	ldw	r2,-48(fp)
   82f60:	100491ba 	slli	r2,r2,6
   82f64:	1885883a 	add	r2,r3,r2
   82f68:	1080fc04 	addi	r2,r2,1008
   82f6c:	10800017 	ldw	r2,0(r2)
   82f70:	10c00114 	ori	r3,r2,4
   82f74:	e13ff917 	ldw	r4,-28(fp)
   82f78:	e0bff417 	ldw	r2,-48(fp)
   82f7c:	100491ba 	slli	r2,r2,6
   82f80:	2085883a 	add	r2,r4,r2
   82f84:	1080fc04 	addi	r2,r2,1008
   82f88:	10c00015 	stw	r3,0(r2)
		if ((c[17] & 0x61) == 0x21)
   82f8c:	e0bff117 	ldw	r2,-60(fp)
   82f90:	10800444 	addi	r2,r2,17
   82f94:	10800003 	ldbu	r2,0(r2)
   82f98:	10803fcc 	andi	r2,r2,255
   82f9c:	1080184c 	andi	r2,r2,97
   82fa0:	10800858 	cmpnei	r2,r2,33
   82fa4:	10000d1e 	bne	r2,zero,82fdc <edid_decode_cea+0x14b0>
			cea->detailed_timing[i].stereo |= STEREO_2WAY_INTERLEAVE_RIGHT_EVEN;
   82fa8:	e0fff917 	ldw	r3,-28(fp)
   82fac:	e0bff417 	ldw	r2,-48(fp)
   82fb0:	100491ba 	slli	r2,r2,6
   82fb4:	1885883a 	add	r2,r3,r2
   82fb8:	1080fc04 	addi	r2,r2,1008
   82fbc:	10800017 	ldw	r2,0(r2)
   82fc0:	10c00214 	ori	r3,r2,8
   82fc4:	e13ff917 	ldw	r4,-28(fp)
   82fc8:	e0bff417 	ldw	r2,-48(fp)
   82fcc:	100491ba 	slli	r2,r2,6
   82fd0:	2085883a 	add	r2,r4,r2
   82fd4:	1080fc04 	addi	r2,r2,1008
   82fd8:	10c00015 	stw	r3,0(r2)
		if ((c[17] & 0x61) == 0x41)
   82fdc:	e0bff117 	ldw	r2,-60(fp)
   82fe0:	10800444 	addi	r2,r2,17
   82fe4:	10800003 	ldbu	r2,0(r2)
   82fe8:	10803fcc 	andi	r2,r2,255
   82fec:	1080184c 	andi	r2,r2,97
   82ff0:	10801058 	cmpnei	r2,r2,65
   82ff4:	10000d1e 	bne	r2,zero,8302c <edid_decode_cea+0x1500>
			cea->detailed_timing[i].stereo |= STEREO_2WAY_INTERLEAVE_LEFT_EVEN;
   82ff8:	e0fff917 	ldw	r3,-28(fp)
   82ffc:	e0bff417 	ldw	r2,-48(fp)
   83000:	100491ba 	slli	r2,r2,6
   83004:	1885883a 	add	r2,r3,r2
   83008:	1080fc04 	addi	r2,r2,1008
   8300c:	10800017 	ldw	r2,0(r2)
   83010:	10c00414 	ori	r3,r2,16
   83014:	e13ff917 	ldw	r4,-28(fp)
   83018:	e0bff417 	ldw	r2,-48(fp)
   8301c:	100491ba 	slli	r2,r2,6
   83020:	2085883a 	add	r2,r4,r2
   83024:	1080fc04 	addi	r2,r2,1008
   83028:	10c00015 	stw	r3,0(r2)
		if ((c[17] & 0x61) == 0x60)
   8302c:	e0bff117 	ldw	r2,-60(fp)
   83030:	10800444 	addi	r2,r2,17
   83034:	10800003 	ldbu	r2,0(r2)
   83038:	10803fcc 	andi	r2,r2,255
   8303c:	1080184c 	andi	r2,r2,97
   83040:	10801818 	cmpnei	r2,r2,96
   83044:	10000d1e 	bne	r2,zero,8307c <edid_decode_cea+0x1550>
			cea->detailed_timing[i].stereo |= STEREO_4WAY_INTERLEAVE;
   83048:	e0fff917 	ldw	r3,-28(fp)
   8304c:	e0bff417 	ldw	r2,-48(fp)
   83050:	100491ba 	slli	r2,r2,6
   83054:	1885883a 	add	r2,r3,r2
   83058:	1080fc04 	addi	r2,r2,1008
   8305c:	10800017 	ldw	r2,0(r2)
   83060:	10c00814 	ori	r3,r2,32
   83064:	e13ff917 	ldw	r4,-28(fp)
   83068:	e0bff417 	ldw	r2,-48(fp)
   8306c:	100491ba 	slli	r2,r2,6
   83070:	2085883a 	add	r2,r4,r2
   83074:	1080fc04 	addi	r2,r2,1008
   83078:	10c00015 	stw	r3,0(r2)
		if ((c[17] & 0x61) == 0x61)
   8307c:	e0bff117 	ldw	r2,-60(fp)
   83080:	10800444 	addi	r2,r2,17
   83084:	10800003 	ldbu	r2,0(r2)
   83088:	10803fcc 	andi	r2,r2,255
   8308c:	1080184c 	andi	r2,r2,97
   83090:	10801858 	cmpnei	r2,r2,97
   83094:	10000d1e 	bne	r2,zero,830cc <edid_decode_cea+0x15a0>
			cea->detailed_timing[i].stereo |= STEREO_SIDE_BY_SIDE_INTERLEAVE;
   83098:	e0fff917 	ldw	r3,-28(fp)
   8309c:	e0bff417 	ldw	r2,-48(fp)
   830a0:	100491ba 	slli	r2,r2,6
   830a4:	1885883a 	add	r2,r3,r2
   830a8:	1080fc04 	addi	r2,r2,1008
   830ac:	10800017 	ldw	r2,0(r2)
   830b0:	10c01014 	ori	r3,r2,64
   830b4:	e13ff917 	ldw	r4,-28(fp)
   830b8:	e0bff417 	ldw	r2,-48(fp)
   830bc:	100491ba 	slli	r2,r2,6
   830c0:	2085883a 	add	r2,r4,r2
   830c4:	1080fc04 	addi	r2,r2,1008
   830c8:	10c00015 	stw	r3,0(r2)

		cea->detailed_timing[i].sync = 0;
   830cc:	e0fff917 	ldw	r3,-28(fp)
   830d0:	e0bff417 	ldw	r2,-48(fp)
   830d4:	100491ba 	slli	r2,r2,6
   830d8:	1885883a 	add	r2,r3,r2
   830dc:	1080fd04 	addi	r2,r2,1012
   830e0:	10000015 	stw	zero,0(r2)
        if (c[17] & 0x10) {
   830e4:	e0bff117 	ldw	r2,-60(fp)
   830e8:	10800444 	addi	r2,r2,17
   830ec:	10800003 	ldbu	r2,0(r2)
   830f0:	10803fcc 	andi	r2,r2,255
   830f4:	1080040c 	andi	r2,r2,16
   830f8:	10005626 	beq	r2,zero,83254 <edid_decode_cea+0x1728>
            if (c[17] & 0x08) {
   830fc:	e0bff117 	ldw	r2,-60(fp)
   83100:	10800444 	addi	r2,r2,17
   83104:	10800003 	ldbu	r2,0(r2)
   83108:	10803fcc 	andi	r2,r2,255
   8310c:	1080020c 	andi	r2,r2,8
   83110:	10002f26 	beq	r2,zero,831d0 <edid_decode_cea+0x16a4>
            	cea->detailed_timing[i].sync |= D_SEPERATE_SYNC;
   83114:	e0fff917 	ldw	r3,-28(fp)
   83118:	e0bff417 	ldw	r2,-48(fp)
   8311c:	100491ba 	slli	r2,r2,6
   83120:	1885883a 	add	r2,r3,r2
   83124:	1080fd04 	addi	r2,r2,1012
   83128:	10800017 	ldw	r2,0(r2)
   8312c:	10c02014 	ori	r3,r2,128
   83130:	e13ff917 	ldw	r4,-28(fp)
   83134:	e0bff417 	ldw	r2,-48(fp)
   83138:	100491ba 	slli	r2,r2,6
   8313c:	2085883a 	add	r2,r4,r2
   83140:	1080fd04 	addi	r2,r2,1012
   83144:	10c00015 	stw	r3,0(r2)
            	if (c[17] & 0x04)
   83148:	e0bff117 	ldw	r2,-60(fp)
   8314c:	10800444 	addi	r2,r2,17
   83150:	10800003 	ldbu	r2,0(r2)
   83154:	10803fcc 	andi	r2,r2,255
   83158:	1080010c 	andi	r2,r2,4
   8315c:	10000e26 	beq	r2,zero,83198 <edid_decode_cea+0x166c>
                	cea->detailed_timing[i].sync |= D_SEPERATE_VSYNC_P;
   83160:	e0fff917 	ldw	r3,-28(fp)
   83164:	e0bff417 	ldw	r2,-48(fp)
   83168:	100491ba 	slli	r2,r2,6
   8316c:	1885883a 	add	r2,r3,r2
   83170:	1080fd04 	addi	r2,r2,1012
   83174:	10800017 	ldw	r2,0(r2)
   83178:	10c08014 	ori	r3,r2,512
   8317c:	e13ff917 	ldw	r4,-28(fp)
   83180:	e0bff417 	ldw	r2,-48(fp)
   83184:	100491ba 	slli	r2,r2,6
   83188:	2085883a 	add	r2,r4,r2
   8318c:	1080fd04 	addi	r2,r2,1012
   83190:	10c00015 	stw	r3,0(r2)
   83194:	00008506 	br	833ac <edid_decode_cea+0x1880>
            	else
            		cea->detailed_timing[i].sync |= D_SEPERATE_VSYNC_N;
   83198:	e0fff917 	ldw	r3,-28(fp)
   8319c:	e0bff417 	ldw	r2,-48(fp)
   831a0:	100491ba 	slli	r2,r2,6
   831a4:	1885883a 	add	r2,r3,r2
   831a8:	1080fd04 	addi	r2,r2,1012
   831ac:	10800017 	ldw	r2,0(r2)
   831b0:	10c04014 	ori	r3,r2,256
   831b4:	e13ff917 	ldw	r4,-28(fp)
   831b8:	e0bff417 	ldw	r2,-48(fp)
   831bc:	100491ba 	slli	r2,r2,6
   831c0:	2085883a 	add	r2,r4,r2
   831c4:	1080fd04 	addi	r2,r2,1012
   831c8:	10c00015 	stw	r3,0(r2)
   831cc:	00007706 	br	833ac <edid_decode_cea+0x1880>
            } else {
            	cea->detailed_timing[i].sync |= D_COMPOSITE_SYNC;
   831d0:	e0fff917 	ldw	r3,-28(fp)
   831d4:	e0bff417 	ldw	r2,-48(fp)
   831d8:	100491ba 	slli	r2,r2,6
   831dc:	1885883a 	add	r2,r3,r2
   831e0:	1080fd04 	addi	r2,r2,1012
   831e4:	10800017 	ldw	r2,0(r2)
   831e8:	10c00814 	ori	r3,r2,32
   831ec:	e13ff917 	ldw	r4,-28(fp)
   831f0:	e0bff417 	ldw	r2,-48(fp)
   831f4:	100491ba 	slli	r2,r2,6
   831f8:	2085883a 	add	r2,r4,r2
   831fc:	1080fd04 	addi	r2,r2,1012
   83200:	10c00015 	stw	r3,0(r2)
            	if (c[17] & 0x04)
   83204:	e0bff117 	ldw	r2,-60(fp)
   83208:	10800444 	addi	r2,r2,17
   8320c:	10800003 	ldbu	r2,0(r2)
   83210:	10803fcc 	andi	r2,r2,255
   83214:	1080010c 	andi	r2,r2,4
   83218:	10006426 	beq	r2,zero,833ac <edid_decode_cea+0x1880>
                	cea->detailed_timing[i].sync |= D_COMPOSITE_SERRATION;
   8321c:	e0fff917 	ldw	r3,-28(fp)
   83220:	e0bff417 	ldw	r2,-48(fp)
   83224:	100491ba 	slli	r2,r2,6
   83228:	1885883a 	add	r2,r3,r2
   8322c:	1080fd04 	addi	r2,r2,1012
   83230:	10800017 	ldw	r2,0(r2)
   83234:	10c01014 	ori	r3,r2,64
   83238:	e13ff917 	ldw	r4,-28(fp)
   8323c:	e0bff417 	ldw	r2,-48(fp)
   83240:	100491ba 	slli	r2,r2,6
   83244:	2085883a 	add	r2,r4,r2
   83248:	1080fd04 	addi	r2,r2,1012
   8324c:	10c00015 	stw	r3,0(r2)
   83250:	00005606 	br	833ac <edid_decode_cea+0x1880>
            }
        } else {
        	if (c[17] & 0x80) {
   83254:	e0bff117 	ldw	r2,-60(fp)
   83258:	10800444 	addi	r2,r2,17
   8325c:	10800003 	ldbu	r2,0(r2)
   83260:	10803fcc 	andi	r2,r2,255
   83264:	1080201c 	xori	r2,r2,128
   83268:	10bfe004 	addi	r2,r2,-128
   8326c:	1000420e 	bge	r2,zero,83378 <edid_decode_cea+0x184c>
        		cea->detailed_timing[i].sync |= A_BIPOLAR_COMPOSITE_SYNC;
   83270:	e0fff917 	ldw	r3,-28(fp)
   83274:	e0bff417 	ldw	r2,-48(fp)
   83278:	100491ba 	slli	r2,r2,6
   8327c:	1885883a 	add	r2,r3,r2
   83280:	1080fd04 	addi	r2,r2,1012
   83284:	10800017 	ldw	r2,0(r2)
   83288:	10c00094 	ori	r3,r2,2
   8328c:	e13ff917 	ldw	r4,-28(fp)
   83290:	e0bff417 	ldw	r2,-48(fp)
   83294:	100491ba 	slli	r2,r2,6
   83298:	2085883a 	add	r2,r4,r2
   8329c:	1080fd04 	addi	r2,r2,1012
   832a0:	10c00015 	stw	r3,0(r2)
        		if (c[17] & 0x40) {
   832a4:	e0bff117 	ldw	r2,-60(fp)
   832a8:	10800444 	addi	r2,r2,17
   832ac:	10800003 	ldbu	r2,0(r2)
   832b0:	10803fcc 	andi	r2,r2,255
   832b4:	1080100c 	andi	r2,r2,64
   832b8:	10003c26 	beq	r2,zero,833ac <edid_decode_cea+0x1880>
            		cea->detailed_timing[i].sync |= A_BIPOLAR_SERRATION;
   832bc:	e0fff917 	ldw	r3,-28(fp)
   832c0:	e0bff417 	ldw	r2,-48(fp)
   832c4:	100491ba 	slli	r2,r2,6
   832c8:	1885883a 	add	r2,r3,r2
   832cc:	1080fd04 	addi	r2,r2,1012
   832d0:	10800017 	ldw	r2,0(r2)
   832d4:	10c00114 	ori	r3,r2,4
   832d8:	e13ff917 	ldw	r4,-28(fp)
   832dc:	e0bff417 	ldw	r2,-48(fp)
   832e0:	100491ba 	slli	r2,r2,6
   832e4:	2085883a 	add	r2,r4,r2
   832e8:	1080fd04 	addi	r2,r2,1012
   832ec:	10c00015 	stw	r3,0(r2)
            		if (c[17] & 0x20)
   832f0:	e0bff117 	ldw	r2,-60(fp)
   832f4:	10800444 	addi	r2,r2,17
   832f8:	10800003 	ldbu	r2,0(r2)
   832fc:	10803fcc 	andi	r2,r2,255
   83300:	1080080c 	andi	r2,r2,32
   83304:	10000e26 	beq	r2,zero,83340 <edid_decode_cea+0x1814>
                		cea->detailed_timing[i].sync |= A_BIPOLAR_SERRATION_SYNC_RGB;
   83308:	e0fff917 	ldw	r3,-28(fp)
   8330c:	e0bff417 	ldw	r2,-48(fp)
   83310:	100491ba 	slli	r2,r2,6
   83314:	1885883a 	add	r2,r3,r2
   83318:	1080fd04 	addi	r2,r2,1012
   8331c:	10800017 	ldw	r2,0(r2)
   83320:	10c00414 	ori	r3,r2,16
   83324:	e13ff917 	ldw	r4,-28(fp)
   83328:	e0bff417 	ldw	r2,-48(fp)
   8332c:	100491ba 	slli	r2,r2,6
   83330:	2085883a 	add	r2,r4,r2
   83334:	1080fd04 	addi	r2,r2,1012
   83338:	10c00015 	stw	r3,0(r2)
   8333c:	00001b06 	br	833ac <edid_decode_cea+0x1880>
            		else
                		cea->detailed_timing[i].sync |= A_BIPOLAR_SERRATION_SYNC_G;
   83340:	e0fff917 	ldw	r3,-28(fp)
   83344:	e0bff417 	ldw	r2,-48(fp)
   83348:	100491ba 	slli	r2,r2,6
   8334c:	1885883a 	add	r2,r3,r2
   83350:	1080fd04 	addi	r2,r2,1012
   83354:	10800017 	ldw	r2,0(r2)
   83358:	10c00214 	ori	r3,r2,8
   8335c:	e13ff917 	ldw	r4,-28(fp)
   83360:	e0bff417 	ldw	r2,-48(fp)
   83364:	100491ba 	slli	r2,r2,6
   83368:	2085883a 	add	r2,r4,r2
   8336c:	1080fd04 	addi	r2,r2,1012
   83370:	10c00015 	stw	r3,0(r2)
   83374:	00000d06 	br	833ac <edid_decode_cea+0x1880>
        		}
        	} else {
        		cea->detailed_timing[i].sync |= A_COMPOSITE_SYNC;
   83378:	e0fff917 	ldw	r3,-28(fp)
   8337c:	e0bff417 	ldw	r2,-48(fp)
   83380:	100491ba 	slli	r2,r2,6
   83384:	1885883a 	add	r2,r3,r2
   83388:	1080fd04 	addi	r2,r2,1012
   8338c:	10800017 	ldw	r2,0(r2)
   83390:	10c00054 	ori	r3,r2,1
   83394:	e13ff917 	ldw	r4,-28(fp)
   83398:	e0bff417 	ldw	r2,-48(fp)
   8339c:	100491ba 	slli	r2,r2,6
   833a0:	2085883a 	add	r2,r4,r2
   833a4:	1080fd04 	addi	r2,r2,1012
   833a8:	10c00015 	stw	r3,0(r2)

	// detail timing descriptor
	if (dtd == 0)
		return 0;

	for (i = 0; i < (int)cea->nr_dtd; ++i) {
   833ac:	e0bff417 	ldw	r2,-48(fp)
   833b0:	10800044 	addi	r2,r2,1
   833b4:	e0bff415 	stw	r2,-48(fp)
   833b8:	e0bff917 	ldw	r2,-28(fp)
   833bc:	10800617 	ldw	r2,24(r2)
   833c0:	e0fff417 	ldw	r3,-48(fp)
   833c4:	18bddf16 	blt	r3,r2,82b44 <edid_decode_cea+0x1018>
        		cea->detailed_timing[i].sync |= A_COMPOSITE_SYNC;
        	}
        }
	}

	return 0;
   833c8:	0005883a 	mov	r2,zero
}
   833cc:	e037883a 	mov	sp,fp
   833d0:	dfc00117 	ldw	ra,4(sp)
   833d4:	df000017 	ldw	fp,0(sp)
   833d8:	dec00204 	addi	sp,sp,8
   833dc:	f800283a 	ret

000833e0 <edid_print_cea>:

void edid_print_cea(struct base_edid *edid, int ext_idx)
{
   833e0:	defff204 	addi	sp,sp,-56
   833e4:	dfc00d15 	stw	ra,52(sp)
   833e8:	df000c15 	stw	fp,48(sp)
   833ec:	df000c04 	addi	fp,sp,48
   833f0:	e13ffe15 	stw	r4,-8(fp)
   833f4:	e17fff15 	stw	r5,-4(fp)
   833f8:	d83bb615 	stw	zero,-4392(sp)
	u8 *c, *dtd = 0;
   833fc:	e03ffa15 	stw	zero,-24(fp)
	int i, t;

	struct ext_data *ext_data = &edid->ext_data[ext_idx];
   83400:	e0bfff17 	ldw	r2,-4(fp)
   83404:	10816f24 	muli	r2,r2,1468
   83408:	10860b04 	addi	r2,r2,6188
   8340c:	e0fffe17 	ldw	r3,-8(fp)
   83410:	1885883a 	add	r2,r3,r2
   83414:	e0bffb15 	stw	r2,-20(fp)
	struct edid_cea *cea = &ext_data->cea_ext;
   83418:	e0bffb17 	ldw	r2,-20(fp)
   8341c:	10800104 	addi	r2,r2,4
   83420:	e0bffc15 	stw	r2,-16(fp)

	printf("\n[%02d] extension block -- CEA-Extension Revision-%02d ...\n\n", ext_idx, cea->rev);
   83424:	e0bffc17 	ldw	r2,-16(fp)
   83428:	10800017 	ldw	r2,0(r2)
   8342c:	010002b4 	movhi	r4,10
   83430:	21279d04 	addi	r4,r4,-24972
   83434:	e17fff17 	ldw	r5,-4(fp)
   83438:	100d883a 	mov	r6,r2
   8343c:	008e5840 	call	8e584 <printf>

	printf("  number of DBCs (data block collections)      : %d\n", cea->nr_dbcs);
   83440:	e0bffc17 	ldw	r2,-16(fp)
   83444:	10800717 	ldw	r2,28(r2)
   83448:	010002b4 	movhi	r4,10
   8344c:	2127ad04 	addi	r4,r4,-24908
   83450:	100b883a 	mov	r5,r2
   83454:	008e5840 	call	8e584 <printf>
	printf("  number of DTDs (detailed timing descriptors) : %d\n", cea->nr_dtd);
   83458:	e0bffc17 	ldw	r2,-16(fp)
   8345c:	10800617 	ldw	r2,24(r2)
   83460:	010002b4 	movhi	r4,10
   83464:	2127bb04 	addi	r4,r4,-24852
   83468:	100b883a 	mov	r5,r2
   8346c:	008e5840 	call	8e584 <printf>
	printf("  offset to DTD                                : %d\n", cea->off_dtd);
   83470:	e0bffc17 	ldw	r2,-16(fp)
   83474:	10800517 	ldw	r2,20(r2)
   83478:	010002b4 	movhi	r4,10
   8347c:	2127c904 	addi	r4,r4,-24796
   83480:	100b883a 	mov	r5,r2
   83484:	008e5840 	call	8e584 <printf>
	printf("  monitor underscans IT formats                : %s\n", cea->flags.underscan ? "yes" : "no");
   83488:	e0bffc17 	ldw	r2,-16(fp)
   8348c:	10800117 	ldw	r2,4(r2)
   83490:	10000326 	beq	r2,zero,834a0 <edid_print_cea+0xc0>
   83494:	008002b4 	movhi	r2,10
   83498:	10a7d704 	addi	r2,r2,-24740
   8349c:	00000206 	br	834a8 <edid_print_cea+0xc8>
   834a0:	008002b4 	movhi	r2,10
   834a4:	10a7d804 	addi	r2,r2,-24736
   834a8:	010002b4 	movhi	r4,10
   834ac:	2127d904 	addi	r4,r4,-24732
   834b0:	100b883a 	mov	r5,r2
   834b4:	008e5840 	call	8e584 <printf>
	printf("  supports audio                               : %s\n", cea->flags.audio ? "yes" : "no");
   834b8:	e0bffc17 	ldw	r2,-16(fp)
   834bc:	10800217 	ldw	r2,8(r2)
   834c0:	10000326 	beq	r2,zero,834d0 <edid_print_cea+0xf0>
   834c4:	008002b4 	movhi	r2,10
   834c8:	10a7d704 	addi	r2,r2,-24740
   834cc:	00000206 	br	834d8 <edid_print_cea+0xf8>
   834d0:	008002b4 	movhi	r2,10
   834d4:	10a7d804 	addi	r2,r2,-24736
   834d8:	010002b4 	movhi	r4,10
   834dc:	2127e704 	addi	r4,r4,-24676
   834e0:	100b883a 	mov	r5,r2
   834e4:	008e5840 	call	8e584 <printf>
	printf("  supports YCbCr 4:4:4 in addition to RGB      : %s\n", cea->flags.ycbcr444 ? "yes" : "no");
   834e8:	e0bffc17 	ldw	r2,-16(fp)
   834ec:	10800317 	ldw	r2,12(r2)
   834f0:	10000326 	beq	r2,zero,83500 <edid_print_cea+0x120>
   834f4:	008002b4 	movhi	r2,10
   834f8:	10a7d704 	addi	r2,r2,-24740
   834fc:	00000206 	br	83508 <edid_print_cea+0x128>
   83500:	008002b4 	movhi	r2,10
   83504:	10a7d804 	addi	r2,r2,-24736
   83508:	010002b4 	movhi	r4,10
   8350c:	2127f504 	addi	r4,r4,-24620
   83510:	100b883a 	mov	r5,r2
   83514:	008e5840 	call	8e584 <printf>
	printf("  supports YCbCr 4:2:2 in addition to RGB      : %s\n", cea->flags.ycbcr422 ? "yes" : "no");
   83518:	e0bffc17 	ldw	r2,-16(fp)
   8351c:	10800417 	ldw	r2,16(r2)
   83520:	10000326 	beq	r2,zero,83530 <edid_print_cea+0x150>
   83524:	008002b4 	movhi	r2,10
   83528:	10a7d704 	addi	r2,r2,-24740
   8352c:	00000206 	br	83538 <edid_print_cea+0x158>
   83530:	008002b4 	movhi	r2,10
   83534:	10a7d804 	addi	r2,r2,-24736
   83538:	010002b4 	movhi	r4,10
   8353c:	21280304 	addi	r4,r4,-24564
   83540:	100b883a 	mov	r5,r2
   83544:	008e5840 	call	8e584 <printf>

	printf("\n  data block collections\n  ---------------------------------\n");
   83548:	010002b4 	movhi	r4,10
   8354c:	21281104 	addi	r4,r4,-24508
   83550:	008e6680 	call	8e668 <puts>

	// data block collection
	for (t = 0; t < cea->nr_dbcs; ++t) {
   83554:	e03ff915 	stw	zero,-28(fp)
   83558:	00040406 	br	8456c <edid_print_cea+0x118c>

		switch (cea->dbc_tags[t]) {
   8355c:	e0fffc17 	ldw	r3,-16(fp)
   83560:	e0bff917 	ldw	r2,-28(fp)
   83564:	1885883a 	add	r2,r3,r2
   83568:	10800804 	addi	r2,r2,32
   8356c:	10800003 	ldbu	r2,0(r2)
   83570:	10803fcc 	andi	r2,r2,255
   83574:	10c00228 	cmpgeui	r3,r2,8
   83578:	1803ea1e 	bne	r3,zero,84524 <edid_print_cea+0x1144>
   8357c:	1085883a 	add	r2,r2,r2
   83580:	1087883a 	add	r3,r2,r2
   83584:	00800234 	movhi	r2,8
   83588:	108d6604 	addi	r2,r2,13720
   8358c:	1885883a 	add	r2,r3,r2
   83590:	10800017 	ldw	r2,0(r2)
   83594:	1000683a 	jmp	r2
   83598:	00084524 	muli	zero,zero,8468
   8359c:	000835b8 	rdprs	zero,zero,8406
   835a0:	00083878 	rdprs	zero,zero,8417
   835a4:	000839ec 	andhi	zero,zero,8423
   835a8:	0008408c 	andi	zero,zero,8450
   835ac:	0008420c 	andi	zero,zero,8456
   835b0:	00084524 	muli	zero,zero,8468
   835b4:	00084220 	cmpeqi	zero,zero,8456
		case CEA_DB_AUDIO:
			printf("\n  [%02d] audio data block ...\n", t);
   835b8:	010002b4 	movhi	r4,10
   835bc:	21282104 	addi	r4,r4,-24444
   835c0:	e17ff917 	ldw	r5,-28(fp)
   835c4:	008e5840 	call	8e584 <printf>
			printf("       number of SADs (short audio descriptor) : %d\n", cea->db_audio.nr_sad);
   835c8:	e0bffc17 	ldw	r2,-16(fp)
   835cc:	10806817 	ldw	r2,416(r2)
   835d0:	010002b4 	movhi	r4,10
   835d4:	21282904 	addi	r4,r4,-24412
   835d8:	100b883a 	mov	r5,r2
   835dc:	008e5840 	call	8e584 <printf>

			for (i = 0; i < cea->db_audio.nr_sad; ++i) {
   835e0:	e03ff815 	stw	zero,-32(fp)
   835e4:	00009f06 	br	83864 <edid_print_cea+0x484>
					"DST",
					"WMA Pro",
					"unknown (15)",
				};

				printf("       %02d) format      : %s\n", i, sad_format[cea->db_audio.sad[i].format]);
   835e8:	e0fffc17 	ldw	r3,-16(fp)
   835ec:	e0bff817 	ldw	r2,-32(fp)
   835f0:	10800524 	muli	r2,r2,20
   835f4:	1885883a 	add	r2,r3,r2
   835f8:	10806904 	addi	r2,r2,420
   835fc:	10800017 	ldw	r2,0(r2)
   83600:	00c002b4 	movhi	r3,10
   83604:	18f61304 	addi	r3,r3,-10164
   83608:	1085883a 	add	r2,r2,r2
   8360c:	1085883a 	add	r2,r2,r2
   83610:	1885883a 	add	r2,r3,r2
   83614:	10800017 	ldw	r2,0(r2)
   83618:	010002b4 	movhi	r4,10
   8361c:	21283704 	addi	r4,r4,-24356
   83620:	e17ff817 	ldw	r5,-32(fp)
   83624:	100d883a 	mov	r6,r2
   83628:	008e5840 	call	8e584 <printf>
				printf("           channels    : %d\n", cea->db_audio.sad[i].channels);
   8362c:	e0fffc17 	ldw	r3,-16(fp)
   83630:	e0bff817 	ldw	r2,-32(fp)
   83634:	10800524 	muli	r2,r2,20
   83638:	1885883a 	add	r2,r3,r2
   8363c:	10806a04 	addi	r2,r2,424
   83640:	10800017 	ldw	r2,0(r2)
   83644:	010002b4 	movhi	r4,10
   83648:	21283f04 	addi	r4,r4,-24324
   8364c:	100b883a 	mov	r5,r2
   83650:	008e5840 	call	8e584 <printf>
				printf("           frequency   : 192K)%d 176.4k)%d 96k)%d 88.2k)%d 48k)%d 44.1k)%d 32k)%d\n",
					cea->db_audio.sad[i].freq & CEA_SAD_SF_192K ? 1 : 0,
   83654:	e0fffc17 	ldw	r3,-16(fp)
   83658:	e0bff817 	ldw	r2,-32(fp)
   8365c:	10800524 	muli	r2,r2,20
   83660:	1885883a 	add	r2,r3,r2
   83664:	10806b04 	addi	r2,r2,428
   83668:	10800017 	ldw	r2,0(r2)
   8366c:	1080100c 	andi	r2,r2,64
					"unknown (15)",
				};

				printf("       %02d) format      : %s\n", i, sad_format[cea->db_audio.sad[i].format]);
				printf("           channels    : %d\n", cea->db_audio.sad[i].channels);
				printf("           frequency   : 192K)%d 176.4k)%d 96k)%d 88.2k)%d 48k)%d 44.1k)%d 32k)%d\n",
   83670:	1004c03a 	cmpne	r2,r2,zero
   83674:	11403fcc 	andi	r5,r2,255
					cea->db_audio.sad[i].freq & CEA_SAD_SF_192K ? 1 : 0,
					cea->db_audio.sad[i].freq & CEA_SAD_SF_176P4K ? 1 : 0,
   83678:	e0fffc17 	ldw	r3,-16(fp)
   8367c:	e0bff817 	ldw	r2,-32(fp)
   83680:	10800524 	muli	r2,r2,20
   83684:	1885883a 	add	r2,r3,r2
   83688:	10806b04 	addi	r2,r2,428
   8368c:	10800017 	ldw	r2,0(r2)
   83690:	1080080c 	andi	r2,r2,32
					"unknown (15)",
				};

				printf("       %02d) format      : %s\n", i, sad_format[cea->db_audio.sad[i].format]);
				printf("           channels    : %d\n", cea->db_audio.sad[i].channels);
				printf("           frequency   : 192K)%d 176.4k)%d 96k)%d 88.2k)%d 48k)%d 44.1k)%d 32k)%d\n",
   83694:	1004c03a 	cmpne	r2,r2,zero
   83698:	10c03fcc 	andi	r3,r2,255
					cea->db_audio.sad[i].freq & CEA_SAD_SF_192K ? 1 : 0,
					cea->db_audio.sad[i].freq & CEA_SAD_SF_176P4K ? 1 : 0,
					cea->db_audio.sad[i].freq & CEA_SAD_SF_96K ? 1 : 0,
   8369c:	e13ffc17 	ldw	r4,-16(fp)
   836a0:	e0bff817 	ldw	r2,-32(fp)
   836a4:	10800524 	muli	r2,r2,20
   836a8:	2085883a 	add	r2,r4,r2
   836ac:	10806b04 	addi	r2,r2,428
   836b0:	10800017 	ldw	r2,0(r2)
   836b4:	1080040c 	andi	r2,r2,16
					"unknown (15)",
				};

				printf("       %02d) format      : %s\n", i, sad_format[cea->db_audio.sad[i].format]);
				printf("           channels    : %d\n", cea->db_audio.sad[i].channels);
				printf("           frequency   : 192K)%d 176.4k)%d 96k)%d 88.2k)%d 48k)%d 44.1k)%d 32k)%d\n",
   836b8:	1004c03a 	cmpne	r2,r2,zero
   836bc:	10803fcc 	andi	r2,r2,255
					cea->db_audio.sad[i].freq & CEA_SAD_SF_192K ? 1 : 0,
					cea->db_audio.sad[i].freq & CEA_SAD_SF_176P4K ? 1 : 0,
					cea->db_audio.sad[i].freq & CEA_SAD_SF_96K ? 1 : 0,
					cea->db_audio.sad[i].freq & CEA_SAD_SF_88P2K ? 1 : 0,
   836c0:	e1bffc17 	ldw	r6,-16(fp)
   836c4:	e13ff817 	ldw	r4,-32(fp)
   836c8:	21000524 	muli	r4,r4,20
   836cc:	3109883a 	add	r4,r6,r4
   836d0:	21006b04 	addi	r4,r4,428
   836d4:	21000017 	ldw	r4,0(r4)
   836d8:	2100020c 	andi	r4,r4,8
					"unknown (15)",
				};

				printf("       %02d) format      : %s\n", i, sad_format[cea->db_audio.sad[i].format]);
				printf("           channels    : %d\n", cea->db_audio.sad[i].channels);
				printf("           frequency   : 192K)%d 176.4k)%d 96k)%d 88.2k)%d 48k)%d 44.1k)%d 32k)%d\n",
   836dc:	2008c03a 	cmpne	r4,r4,zero
   836e0:	22003fcc 	andi	r8,r4,255
					cea->db_audio.sad[i].freq & CEA_SAD_SF_192K ? 1 : 0,
					cea->db_audio.sad[i].freq & CEA_SAD_SF_176P4K ? 1 : 0,
					cea->db_audio.sad[i].freq & CEA_SAD_SF_96K ? 1 : 0,
					cea->db_audio.sad[i].freq & CEA_SAD_SF_88P2K ? 1 : 0,
					cea->db_audio.sad[i].freq & CEA_SAD_SF_48K ? 1 : 0,
   836e4:	e1bffc17 	ldw	r6,-16(fp)
   836e8:	e13ff817 	ldw	r4,-32(fp)
   836ec:	21000524 	muli	r4,r4,20
   836f0:	3109883a 	add	r4,r6,r4
   836f4:	21006b04 	addi	r4,r4,428
   836f8:	21000017 	ldw	r4,0(r4)
   836fc:	2100010c 	andi	r4,r4,4
					"unknown (15)",
				};

				printf("       %02d) format      : %s\n", i, sad_format[cea->db_audio.sad[i].format]);
				printf("           channels    : %d\n", cea->db_audio.sad[i].channels);
				printf("           frequency   : 192K)%d 176.4k)%d 96k)%d 88.2k)%d 48k)%d 44.1k)%d 32k)%d\n",
   83700:	2008c03a 	cmpne	r4,r4,zero
   83704:	21c03fcc 	andi	r7,r4,255
					cea->db_audio.sad[i].freq & CEA_SAD_SF_192K ? 1 : 0,
					cea->db_audio.sad[i].freq & CEA_SAD_SF_176P4K ? 1 : 0,
					cea->db_audio.sad[i].freq & CEA_SAD_SF_96K ? 1 : 0,
					cea->db_audio.sad[i].freq & CEA_SAD_SF_88P2K ? 1 : 0,
					cea->db_audio.sad[i].freq & CEA_SAD_SF_48K ? 1 : 0,
					cea->db_audio.sad[i].freq & CEA_SAD_SF_44P1K ? 1 : 0,
   83708:	e1bffc17 	ldw	r6,-16(fp)
   8370c:	e13ff817 	ldw	r4,-32(fp)
   83710:	21000524 	muli	r4,r4,20
   83714:	3109883a 	add	r4,r6,r4
   83718:	21006b04 	addi	r4,r4,428
   8371c:	21000017 	ldw	r4,0(r4)
   83720:	2100008c 	andi	r4,r4,2
					"unknown (15)",
				};

				printf("       %02d) format      : %s\n", i, sad_format[cea->db_audio.sad[i].format]);
				printf("           channels    : %d\n", cea->db_audio.sad[i].channels);
				printf("           frequency   : 192K)%d 176.4k)%d 96k)%d 88.2k)%d 48k)%d 44.1k)%d 32k)%d\n",
   83724:	2008c03a 	cmpne	r4,r4,zero
   83728:	21803fcc 	andi	r6,r4,255
					cea->db_audio.sad[i].freq & CEA_SAD_SF_176P4K ? 1 : 0,
					cea->db_audio.sad[i].freq & CEA_SAD_SF_96K ? 1 : 0,
					cea->db_audio.sad[i].freq & CEA_SAD_SF_88P2K ? 1 : 0,
					cea->db_audio.sad[i].freq & CEA_SAD_SF_48K ? 1 : 0,
					cea->db_audio.sad[i].freq & CEA_SAD_SF_44P1K ? 1 : 0,
					cea->db_audio.sad[i].freq & CEA_SAD_SF_32K ? 1 : 0);
   8372c:	e27ffc17 	ldw	r9,-16(fp)
   83730:	e13ff817 	ldw	r4,-32(fp)
   83734:	21000524 	muli	r4,r4,20
   83738:	4909883a 	add	r4,r9,r4
   8373c:	21006b04 	addi	r4,r4,428
   83740:	21000017 	ldw	r4,0(r4)
   83744:	2100004c 	andi	r4,r4,1
					"unknown (15)",
				};

				printf("       %02d) format      : %s\n", i, sad_format[cea->db_audio.sad[i].format]);
				printf("           channels    : %d\n", cea->db_audio.sad[i].channels);
				printf("           frequency   : 192K)%d 176.4k)%d 96k)%d 88.2k)%d 48k)%d 44.1k)%d 32k)%d\n",
   83748:	2008c03a 	cmpne	r4,r4,zero
   8374c:	21003fcc 	andi	r4,r4,255
   83750:	da000015 	stw	r8,0(sp)
   83754:	d9c00115 	stw	r7,4(sp)
   83758:	d9800215 	stw	r6,8(sp)
   8375c:	d9000315 	stw	r4,12(sp)
   83760:	010002b4 	movhi	r4,10
   83764:	21284704 	addi	r4,r4,-24292
   83768:	180d883a 	mov	r6,r3
   8376c:	100f883a 	mov	r7,r2
   83770:	008e5840 	call	8e584 <printf>
					cea->db_audio.sad[i].freq & CEA_SAD_SF_88P2K ? 1 : 0,
					cea->db_audio.sad[i].freq & CEA_SAD_SF_48K ? 1 : 0,
					cea->db_audio.sad[i].freq & CEA_SAD_SF_44P1K ? 1 : 0,
					cea->db_audio.sad[i].freq & CEA_SAD_SF_32K ? 1 : 0);

				switch (cea->db_audio.sad[i].format) {
   83774:	e0fffc17 	ldw	r3,-16(fp)
   83778:	e0bff817 	ldw	r2,-32(fp)
   8377c:	10800524 	muli	r2,r2,20
   83780:	1885883a 	add	r2,r3,r2
   83784:	10806904 	addi	r2,r2,420
   83788:	10800017 	ldw	r2,0(r2)
   8378c:	10c00060 	cmpeqi	r3,r2,1
   83790:	1800041e 	bne	r3,zero,837a4 <edid_print_cea+0x3c4>
   83794:	0080300e 	bge	zero,r2,83858 <edid_print_cea+0x478>
   83798:	10800248 	cmpgei	r2,r2,9
   8379c:	10002e1e 	bne	r2,zero,83858 <edid_print_cea+0x478>
   837a0:	00002106 	br	83828 <edid_print_cea+0x448>
				case CEA_SAD_FMT_LPCM:
					printf("           resolution  : 24-bit)%d 20-bit)%d 16-bit)%d\n",
						cea->db_audio.sad[i].resolution & 0x04 ? 1 : 0,
   837a4:	e0fffc17 	ldw	r3,-16(fp)
   837a8:	e0bff817 	ldw	r2,-32(fp)
   837ac:	10800524 	muli	r2,r2,20
   837b0:	1885883a 	add	r2,r3,r2
   837b4:	10806c04 	addi	r2,r2,432
   837b8:	10800017 	ldw	r2,0(r2)
   837bc:	1080010c 	andi	r2,r2,4
					cea->db_audio.sad[i].freq & CEA_SAD_SF_44P1K ? 1 : 0,
					cea->db_audio.sad[i].freq & CEA_SAD_SF_32K ? 1 : 0);

				switch (cea->db_audio.sad[i].format) {
				case CEA_SAD_FMT_LPCM:
					printf("           resolution  : 24-bit)%d 20-bit)%d 16-bit)%d\n",
   837c0:	1004c03a 	cmpne	r2,r2,zero
   837c4:	11403fcc 	andi	r5,r2,255
						cea->db_audio.sad[i].resolution & 0x04 ? 1 : 0,
						cea->db_audio.sad[i].resolution & 0x02 ? 1 : 0,
   837c8:	e0fffc17 	ldw	r3,-16(fp)
   837cc:	e0bff817 	ldw	r2,-32(fp)
   837d0:	10800524 	muli	r2,r2,20
   837d4:	1885883a 	add	r2,r3,r2
   837d8:	10806c04 	addi	r2,r2,432
   837dc:	10800017 	ldw	r2,0(r2)
   837e0:	1080008c 	andi	r2,r2,2
					cea->db_audio.sad[i].freq & CEA_SAD_SF_44P1K ? 1 : 0,
					cea->db_audio.sad[i].freq & CEA_SAD_SF_32K ? 1 : 0);

				switch (cea->db_audio.sad[i].format) {
				case CEA_SAD_FMT_LPCM:
					printf("           resolution  : 24-bit)%d 20-bit)%d 16-bit)%d\n",
   837e4:	1004c03a 	cmpne	r2,r2,zero
   837e8:	10c03fcc 	andi	r3,r2,255
						cea->db_audio.sad[i].resolution & 0x04 ? 1 : 0,
						cea->db_audio.sad[i].resolution & 0x02 ? 1 : 0,
						cea->db_audio.sad[i].resolution & 0x01 ? 1 : 0);
   837ec:	e13ffc17 	ldw	r4,-16(fp)
   837f0:	e0bff817 	ldw	r2,-32(fp)
   837f4:	10800524 	muli	r2,r2,20
   837f8:	2085883a 	add	r2,r4,r2
   837fc:	10806c04 	addi	r2,r2,432
   83800:	10800017 	ldw	r2,0(r2)
   83804:	1080004c 	andi	r2,r2,1
					cea->db_audio.sad[i].freq & CEA_SAD_SF_44P1K ? 1 : 0,
					cea->db_audio.sad[i].freq & CEA_SAD_SF_32K ? 1 : 0);

				switch (cea->db_audio.sad[i].format) {
				case CEA_SAD_FMT_LPCM:
					printf("           resolution  : 24-bit)%d 20-bit)%d 16-bit)%d\n",
   83808:	1004c03a 	cmpne	r2,r2,zero
   8380c:	10803fcc 	andi	r2,r2,255
   83810:	010002b4 	movhi	r4,10
   83814:	21285c04 	addi	r4,r4,-24208
   83818:	180d883a 	mov	r6,r3
   8381c:	100f883a 	mov	r7,r2
   83820:	008e5840 	call	8e584 <printf>
						cea->db_audio.sad[i].resolution & 0x04 ? 1 : 0,
						cea->db_audio.sad[i].resolution & 0x02 ? 1 : 0,
						cea->db_audio.sad[i].resolution & 0x01 ? 1 : 0);
					break;
   83824:	00000c06 	br	83858 <edid_print_cea+0x478>
				case CEA_SAD_FMT_MP3:
				case CEA_SAD_FMT_MPEG2:
				case CEA_SAD_FMT_AAC:
				case CEA_SAD_FMT_DTS:
				case CEA_SAD_FMT_ATRAC:
					printf("           bitrate max : %d (kHz)\n", cea->db_audio.sad[i].bitrate);
   83828:	e0fffc17 	ldw	r3,-16(fp)
   8382c:	e0bff817 	ldw	r2,-32(fp)
   83830:	10800044 	addi	r2,r2,1
   83834:	10800524 	muli	r2,r2,20
   83838:	1885883a 	add	r2,r3,r2
   8383c:	10806804 	addi	r2,r2,416
   83840:	10800017 	ldw	r2,0(r2)
   83844:	010002b4 	movhi	r4,10
   83848:	21286a04 	addi	r4,r4,-24152
   8384c:	100b883a 	mov	r5,r2
   83850:	008e5840 	call	8e584 <printf>
					break;
   83854:	0001883a 	nop
		switch (cea->dbc_tags[t]) {
		case CEA_DB_AUDIO:
			printf("\n  [%02d] audio data block ...\n", t);
			printf("       number of SADs (short audio descriptor) : %d\n", cea->db_audio.nr_sad);

			for (i = 0; i < cea->db_audio.nr_sad; ++i) {
   83858:	e0bff817 	ldw	r2,-32(fp)
   8385c:	10800044 	addi	r2,r2,1
   83860:	e0bff815 	stw	r2,-32(fp)
   83864:	e0bffc17 	ldw	r2,-16(fp)
   83868:	10806817 	ldw	r2,416(r2)
   8386c:	e0fff817 	ldw	r3,-32(fp)
   83870:	18bf5d16 	blt	r3,r2,835e8 <edid_print_cea+0x208>
				//case CEA_SAD_FMT_DST:
				//case CEA_SAD_FMT_WMA_PRO:
				//	break;
				}
			}
			break;
   83874:	00033a06 	br	84560 <edid_print_cea+0x1180>
				"720x480p       @239.76/240 Hz (16:9)",
				"720(1440)x480i @239.76/240 Hz (4:3)",
				"720(1440)x480i @239.76/240 Hz (16:9)",
			};

			printf("\n  [%02d] video data block ...\n", t);
   83878:	010002b4 	movhi	r4,10
   8387c:	21287304 	addi	r4,r4,-24116
   83880:	e17ff917 	ldw	r5,-28(fp)
   83884:	008e5840 	call	8e584 <printf>
			printf("       number of SVDs (short video descriptor) : %d\n", cea->db_video.nr_svd);
   83888:	e0bffc17 	ldw	r2,-16(fp)
   8388c:	10802717 	ldw	r2,156(r2)
   83890:	010002b4 	movhi	r4,10
   83894:	21287b04 	addi	r4,r4,-24084
   83898:	100b883a 	mov	r5,r2
   8389c:	008e5840 	call	8e584 <printf>

			for (i = 0; i < cea->db_video.nr_svd; ++i) {
   838a0:	e03ff815 	stw	zero,-32(fp)
   838a4:	00004c06 	br	839d8 <edid_print_cea+0x5f8>
				if (cea->db_video.svd[i].vic < 60)
   838a8:	e0fffc17 	ldw	r3,-16(fp)
   838ac:	e0bff817 	ldw	r2,-32(fp)
   838b0:	10800044 	addi	r2,r2,1
   838b4:	100490fa 	slli	r2,r2,3
   838b8:	1885883a 	add	r2,r3,r2
   838bc:	10802704 	addi	r2,r2,156
   838c0:	10800017 	ldw	r2,0(r2)
   838c4:	10800f08 	cmpgei	r2,r2,60
   838c8:	1000271e 	bne	r2,zero,83968 <edid_print_cea+0x588>
					printf("       %02d) VIC-%02d %s %s\n", i, cea->db_video.svd[i].vic, vic_table[cea->db_video.svd[i].vic], cea->db_video.svd[i].native ? "(native)" : " ");
   838cc:	e0fffc17 	ldw	r3,-16(fp)
   838d0:	e0bff817 	ldw	r2,-32(fp)
   838d4:	10800044 	addi	r2,r2,1
   838d8:	100490fa 	slli	r2,r2,3
   838dc:	1885883a 	add	r2,r3,r2
   838e0:	10802704 	addi	r2,r2,156
   838e4:	11800017 	ldw	r6,0(r2)
   838e8:	e0fffc17 	ldw	r3,-16(fp)
   838ec:	e0bff817 	ldw	r2,-32(fp)
   838f0:	10800044 	addi	r2,r2,1
   838f4:	100490fa 	slli	r2,r2,3
   838f8:	1885883a 	add	r2,r3,r2
   838fc:	10802704 	addi	r2,r2,156
   83900:	10800017 	ldw	r2,0(r2)
   83904:	00c002b4 	movhi	r3,10
   83908:	18f62304 	addi	r3,r3,-10100
   8390c:	1085883a 	add	r2,r2,r2
   83910:	1085883a 	add	r2,r2,r2
   83914:	1885883a 	add	r2,r3,r2
   83918:	10c00017 	ldw	r3,0(r2)
   8391c:	e13ffc17 	ldw	r4,-16(fp)
   83920:	e0bff817 	ldw	r2,-32(fp)
   83924:	10800504 	addi	r2,r2,20
   83928:	100490fa 	slli	r2,r2,3
   8392c:	2085883a 	add	r2,r4,r2
   83930:	10800017 	ldw	r2,0(r2)
   83934:	10000326 	beq	r2,zero,83944 <edid_print_cea+0x564>
   83938:	008002b4 	movhi	r2,10
   8393c:	10a88904 	addi	r2,r2,-24028
   83940:	00000206 	br	8394c <edid_print_cea+0x56c>
   83944:	008002b4 	movhi	r2,10
   83948:	10a88c04 	addi	r2,r2,-24016
   8394c:	d8800015 	stw	r2,0(sp)
   83950:	010002b4 	movhi	r4,10
   83954:	21288d04 	addi	r4,r4,-24012
   83958:	e17ff817 	ldw	r5,-32(fp)
   8395c:	180f883a 	mov	r7,r3
   83960:	008e5840 	call	8e584 <printf>
   83964:	00001906 	br	839cc <edid_print_cea+0x5ec>
				else
					printf("       %02d) VIC-%02d unknown %s\n", i, cea->db_video.svd[i].vic, cea->db_video.svd[i].native ? "(native)" : " ");
   83968:	e0fffc17 	ldw	r3,-16(fp)
   8396c:	e0bff817 	ldw	r2,-32(fp)
   83970:	10800044 	addi	r2,r2,1
   83974:	100490fa 	slli	r2,r2,3
   83978:	1885883a 	add	r2,r3,r2
   8397c:	10802704 	addi	r2,r2,156
   83980:	10c00017 	ldw	r3,0(r2)
   83984:	e13ffc17 	ldw	r4,-16(fp)
   83988:	e0bff817 	ldw	r2,-32(fp)
   8398c:	10800504 	addi	r2,r2,20
   83990:	100490fa 	slli	r2,r2,3
   83994:	2085883a 	add	r2,r4,r2
   83998:	10800017 	ldw	r2,0(r2)
   8399c:	10000326 	beq	r2,zero,839ac <edid_print_cea+0x5cc>
   839a0:	008002b4 	movhi	r2,10
   839a4:	10a88904 	addi	r2,r2,-24028
   839a8:	00000206 	br	839b4 <edid_print_cea+0x5d4>
   839ac:	008002b4 	movhi	r2,10
   839b0:	10a88c04 	addi	r2,r2,-24016
   839b4:	010002b4 	movhi	r4,10
   839b8:	21289504 	addi	r4,r4,-23980
   839bc:	e17ff817 	ldw	r5,-32(fp)
   839c0:	180d883a 	mov	r6,r3
   839c4:	100f883a 	mov	r7,r2
   839c8:	008e5840 	call	8e584 <printf>
			};

			printf("\n  [%02d] video data block ...\n", t);
			printf("       number of SVDs (short video descriptor) : %d\n", cea->db_video.nr_svd);

			for (i = 0; i < cea->db_video.nr_svd; ++i) {
   839cc:	e0bff817 	ldw	r2,-32(fp)
   839d0:	10800044 	addi	r2,r2,1
   839d4:	e0bff815 	stw	r2,-32(fp)
   839d8:	e0bffc17 	ldw	r2,-16(fp)
   839dc:	10802717 	ldw	r2,156(r2)
   839e0:	e0fff817 	ldw	r3,-32(fp)
   839e4:	18bfb016 	blt	r3,r2,838a8 <edid_print_cea+0x4c8>
				if (cea->db_video.svd[i].vic < 60)
					printf("       %02d) VIC-%02d %s %s\n", i, cea->db_video.svd[i].vic, vic_table[cea->db_video.svd[i].vic], cea->db_video.svd[i].native ? "(native)" : " ");
				else
					printf("       %02d) VIC-%02d unknown %s\n", i, cea->db_video.svd[i].vic, cea->db_video.svd[i].native ? "(native)" : " ");
			}
			break;
   839e8:	0002dd06 	br	84560 <edid_print_cea+0x1180>
		}
		case CEA_DB_VENDOR:
			if (cea->db_vsdb_hdmi.ieee_reg_id != 0x000c03) {
   839ec:	e0bffc17 	ldw	r2,-16(fp)
   839f0:	10809d17 	ldw	r2,628(r2)
   839f4:	108300e0 	cmpeqi	r2,r2,3075
   839f8:	1000051e 	bne	r2,zero,83a10 <edid_print_cea+0x630>
				printf("\n  [%02d] VSDB vendor specific data block ...\n", t);
   839fc:	010002b4 	movhi	r4,10
   83a00:	21289e04 	addi	r4,r4,-23944
   83a04:	e17ff917 	ldw	r5,-28(fp)
   83a08:	008e5840 	call	8e584 <printf>
				break;
   83a0c:	0002d406 	br	84560 <edid_print_cea+0x1180>
			}

			printf("\n  [%02d] HDMI VSDB vendor specific data block ...\n", t);
   83a10:	010002b4 	movhi	r4,10
   83a14:	2128aa04 	addi	r4,r4,-23896
   83a18:	e17ff917 	ldw	r5,-28(fp)
   83a1c:	008e5840 	call	8e584 <printf>
			printf("       source physical address         : %d.%d.%d.%d\n",
				cea->db_vsdb_hdmi.addr_a, cea->db_vsdb_hdmi.addr_b,
   83a20:	e0bffc17 	ldw	r2,-16(fp)
				printf("\n  [%02d] VSDB vendor specific data block ...\n", t);
				break;
			}

			printf("\n  [%02d] HDMI VSDB vendor specific data block ...\n", t);
			printf("       source physical address         : %d.%d.%d.%d\n",
   83a24:	11409e17 	ldw	r5,632(r2)
				cea->db_vsdb_hdmi.addr_a, cea->db_vsdb_hdmi.addr_b,
   83a28:	e0bffc17 	ldw	r2,-16(fp)
				printf("\n  [%02d] VSDB vendor specific data block ...\n", t);
				break;
			}

			printf("\n  [%02d] HDMI VSDB vendor specific data block ...\n", t);
			printf("       source physical address         : %d.%d.%d.%d\n",
   83a2c:	10c09f17 	ldw	r3,636(r2)
				cea->db_vsdb_hdmi.addr_a, cea->db_vsdb_hdmi.addr_b,
				cea->db_vsdb_hdmi.addr_c, cea->db_vsdb_hdmi.addr_d);
   83a30:	e0bffc17 	ldw	r2,-16(fp)
				printf("\n  [%02d] VSDB vendor specific data block ...\n", t);
				break;
			}

			printf("\n  [%02d] HDMI VSDB vendor specific data block ...\n", t);
			printf("       source physical address         : %d.%d.%d.%d\n",
   83a34:	1080a017 	ldw	r2,640(r2)
				cea->db_vsdb_hdmi.addr_a, cea->db_vsdb_hdmi.addr_b,
				cea->db_vsdb_hdmi.addr_c, cea->db_vsdb_hdmi.addr_d);
   83a38:	e13ffc17 	ldw	r4,-16(fp)
				printf("\n  [%02d] VSDB vendor specific data block ...\n", t);
				break;
			}

			printf("\n  [%02d] HDMI VSDB vendor specific data block ...\n", t);
			printf("       source physical address         : %d.%d.%d.%d\n",
   83a3c:	2100a117 	ldw	r4,644(r4)
   83a40:	d9000015 	stw	r4,0(sp)
   83a44:	010002b4 	movhi	r4,10
   83a48:	2128b704 	addi	r4,r4,-23844
   83a4c:	180d883a 	mov	r6,r3
   83a50:	100f883a 	mov	r7,r2
   83a54:	008e5840 	call	8e584 <printf>
				cea->db_vsdb_hdmi.addr_a, cea->db_vsdb_hdmi.addr_b,
				cea->db_vsdb_hdmi.addr_c, cea->db_vsdb_hdmi.addr_d);

			if (cea->db_vsdb_hdmi.ext_len >= 6) {
   83a58:	e0bffc17 	ldw	r2,-16(fp)
   83a5c:	10809c17 	ldw	r2,624(r2)
   83a60:	10800190 	cmplti	r2,r2,6
   83a64:	1000481e 	bne	r2,zero,83b88 <edid_print_cea+0x7a8>
				printf("       support ACP ISRC1 ISRC2 packets : %s\n", cea->db_vsdb_hdmi.ai ? "yes" : "no");
   83a68:	e0bffc17 	ldw	r2,-16(fp)
   83a6c:	1080a217 	ldw	r2,648(r2)
   83a70:	10000326 	beq	r2,zero,83a80 <edid_print_cea+0x6a0>
   83a74:	008002b4 	movhi	r2,10
   83a78:	10a7d704 	addi	r2,r2,-24740
   83a7c:	00000206 	br	83a88 <edid_print_cea+0x6a8>
   83a80:	008002b4 	movhi	r2,10
   83a84:	10a7d804 	addi	r2,r2,-24736
   83a88:	010002b4 	movhi	r4,10
   83a8c:	2128c504 	addi	r4,r4,-23788
   83a90:	100b883a 	mov	r5,r2
   83a94:	008e5840 	call	8e584 <printf>
				printf("       support 48 bpp                  : %s\n", cea->db_vsdb_hdmi.bpp48 ? "yes" : "no");
   83a98:	e0bffc17 	ldw	r2,-16(fp)
   83a9c:	1080a517 	ldw	r2,660(r2)
   83aa0:	10000326 	beq	r2,zero,83ab0 <edid_print_cea+0x6d0>
   83aa4:	008002b4 	movhi	r2,10
   83aa8:	10a7d704 	addi	r2,r2,-24740
   83aac:	00000206 	br	83ab8 <edid_print_cea+0x6d8>
   83ab0:	008002b4 	movhi	r2,10
   83ab4:	10a7d804 	addi	r2,r2,-24736
   83ab8:	010002b4 	movhi	r4,10
   83abc:	2128d104 	addi	r4,r4,-23740
   83ac0:	100b883a 	mov	r5,r2
   83ac4:	008e5840 	call	8e584 <printf>
				printf("       support 36 bpp                  : %s\n", cea->db_vsdb_hdmi.bpp36 ? "yes" : "no");
   83ac8:	e0bffc17 	ldw	r2,-16(fp)
   83acc:	1080a417 	ldw	r2,656(r2)
   83ad0:	10000326 	beq	r2,zero,83ae0 <edid_print_cea+0x700>
   83ad4:	008002b4 	movhi	r2,10
   83ad8:	10a7d704 	addi	r2,r2,-24740
   83adc:	00000206 	br	83ae8 <edid_print_cea+0x708>
   83ae0:	008002b4 	movhi	r2,10
   83ae4:	10a7d804 	addi	r2,r2,-24736
   83ae8:	010002b4 	movhi	r4,10
   83aec:	2128dd04 	addi	r4,r4,-23692
   83af0:	100b883a 	mov	r5,r2
   83af4:	008e5840 	call	8e584 <printf>
				printf("       support 30 bpp                  : %s\n", cea->db_vsdb_hdmi.bpp30 ? "yes" : "no");
   83af8:	e0bffc17 	ldw	r2,-16(fp)
   83afc:	1080a317 	ldw	r2,652(r2)
   83b00:	10000326 	beq	r2,zero,83b10 <edid_print_cea+0x730>
   83b04:	008002b4 	movhi	r2,10
   83b08:	10a7d704 	addi	r2,r2,-24740
   83b0c:	00000206 	br	83b18 <edid_print_cea+0x738>
   83b10:	008002b4 	movhi	r2,10
   83b14:	10a7d804 	addi	r2,r2,-24736
   83b18:	010002b4 	movhi	r4,10
   83b1c:	2128e904 	addi	r4,r4,-23644
   83b20:	100b883a 	mov	r5,r2
   83b24:	008e5840 	call	8e584 <printf>
				printf("       support YCbCr 4:4:4 deep color  : %s\n", cea->db_vsdb_hdmi.ycbcr444 ? "yes" : "no");
   83b28:	e0bffc17 	ldw	r2,-16(fp)
   83b2c:	1080a617 	ldw	r2,664(r2)
   83b30:	10000326 	beq	r2,zero,83b40 <edid_print_cea+0x760>
   83b34:	008002b4 	movhi	r2,10
   83b38:	10a7d704 	addi	r2,r2,-24740
   83b3c:	00000206 	br	83b48 <edid_print_cea+0x768>
   83b40:	008002b4 	movhi	r2,10
   83b44:	10a7d804 	addi	r2,r2,-24736
   83b48:	010002b4 	movhi	r4,10
   83b4c:	2128f504 	addi	r4,r4,-23596
   83b50:	100b883a 	mov	r5,r2
   83b54:	008e5840 	call	8e584 <printf>
				printf("       support DVI dual-link           : %s\n", cea->db_vsdb_hdmi.dvi_dual ? "yes" : "no");
   83b58:	e0bffc17 	ldw	r2,-16(fp)
   83b5c:	1080a717 	ldw	r2,668(r2)
   83b60:	10000326 	beq	r2,zero,83b70 <edid_print_cea+0x790>
   83b64:	008002b4 	movhi	r2,10
   83b68:	10a7d704 	addi	r2,r2,-24740
   83b6c:	00000206 	br	83b78 <edid_print_cea+0x798>
   83b70:	008002b4 	movhi	r2,10
   83b74:	10a7d804 	addi	r2,r2,-24736
   83b78:	010002b4 	movhi	r4,10
   83b7c:	21290104 	addi	r4,r4,-23548
   83b80:	100b883a 	mov	r5,r2
   83b84:	008e5840 	call	8e584 <printf>
			}

			if (cea->db_vsdb_hdmi.ext_len >= 7) {
   83b88:	e0bffc17 	ldw	r2,-16(fp)
   83b8c:	10809c17 	ldw	r2,624(r2)
   83b90:	108001d0 	cmplti	r2,r2,7
   83b94:	1000061e 	bne	r2,zero,83bb0 <edid_print_cea+0x7d0>
				printf("       max TMDS clock                  : %d (MHz)\n", cea->db_vsdb_hdmi.max_tmds_clk);
   83b98:	e0bffc17 	ldw	r2,-16(fp)
   83b9c:	1080ab17 	ldw	r2,684(r2)
   83ba0:	010002b4 	movhi	r4,10
   83ba4:	21290d04 	addi	r4,r4,-23500
   83ba8:	100b883a 	mov	r5,r2
   83bac:	008e5840 	call	8e584 <printf>
			}

			if (cea->db_vsdb_hdmi.p_latency != 0) {
   83bb0:	e0bffc17 	ldw	r2,-16(fp)
   83bb4:	1080a817 	ldw	r2,672(r2)
   83bb8:	10000c26 	beq	r2,zero,83bec <edid_print_cea+0x80c>
				printf("       video latency (progressive)     : %d (ms)\n", cea->db_vsdb_hdmi.vid_latency_p);
   83bbc:	e0bffc17 	ldw	r2,-16(fp)
   83bc0:	1080ac17 	ldw	r2,688(r2)
   83bc4:	010002b4 	movhi	r4,10
   83bc8:	21291a04 	addi	r4,r4,-23448
   83bcc:	100b883a 	mov	r5,r2
   83bd0:	008e5840 	call	8e584 <printf>
				printf("       audio latency (progressive)     : %d (ms)\n", cea->db_vsdb_hdmi.aud_latency_p);
   83bd4:	e0bffc17 	ldw	r2,-16(fp)
   83bd8:	1080ad17 	ldw	r2,692(r2)
   83bdc:	010002b4 	movhi	r4,10
   83be0:	21292704 	addi	r4,r4,-23396
   83be4:	100b883a 	mov	r5,r2
   83be8:	008e5840 	call	8e584 <printf>
			}

			if (cea->db_vsdb_hdmi.i_latency != 0) {
   83bec:	e0bffc17 	ldw	r2,-16(fp)
   83bf0:	1080a917 	ldw	r2,676(r2)
   83bf4:	10000c26 	beq	r2,zero,83c28 <edid_print_cea+0x848>
				printf("       video latency (interlaced)      : %d (ms)\n", cea->db_vsdb_hdmi.vid_latency_i);
   83bf8:	e0bffc17 	ldw	r2,-16(fp)
   83bfc:	1080ae17 	ldw	r2,696(r2)
   83c00:	010002b4 	movhi	r4,10
   83c04:	21293404 	addi	r4,r4,-23344
   83c08:	100b883a 	mov	r5,r2
   83c0c:	008e5840 	call	8e584 <printf>
				printf("       audio latency (interlaced)      : %d (ms)\n", cea->db_vsdb_hdmi.aud_latency_i);
   83c10:	e0bffc17 	ldw	r2,-16(fp)
   83c14:	1080af17 	ldw	r2,700(r2)
   83c18:	010002b4 	movhi	r4,10
   83c1c:	21294104 	addi	r4,r4,-23292
   83c20:	100b883a 	mov	r5,r2
   83c24:	008e5840 	call	8e584 <printf>
			}

			printf("       HDMI video fields               : %s\n", cea->db_vsdb_hdmi.hdmi_video ? "yes" : "no");
   83c28:	e0bffc17 	ldw	r2,-16(fp)
   83c2c:	1080aa17 	ldw	r2,680(r2)
   83c30:	10000326 	beq	r2,zero,83c40 <edid_print_cea+0x860>
   83c34:	008002b4 	movhi	r2,10
   83c38:	10a7d704 	addi	r2,r2,-24740
   83c3c:	00000206 	br	83c48 <edid_print_cea+0x868>
   83c40:	008002b4 	movhi	r2,10
   83c44:	10a7d804 	addi	r2,r2,-24736
   83c48:	010002b4 	movhi	r4,10
   83c4c:	21294e04 	addi	r4,r4,-23240
   83c50:	100b883a 	mov	r5,r2
   83c54:	008e5840 	call	8e584 <printf>
			printf("       HDMI 3D video fields            : %s\n", cea->db_vsdb_hdmi.present_3d ? "yes" : "no");
   83c58:	e0bffc17 	ldw	r2,-16(fp)
   83c5c:	1080b017 	ldw	r2,704(r2)
   83c60:	10000326 	beq	r2,zero,83c70 <edid_print_cea+0x890>
   83c64:	008002b4 	movhi	r2,10
   83c68:	10a7d704 	addi	r2,r2,-24740
   83c6c:	00000206 	br	83c78 <edid_print_cea+0x898>
   83c70:	008002b4 	movhi	r2,10
   83c74:	10a7d804 	addi	r2,r2,-24736
   83c78:	010002b4 	movhi	r4,10
   83c7c:	21295a04 	addi	r4,r4,-23192
   83c80:	100b883a 	mov	r5,r2
   83c84:	008e5840 	call	8e584 <printf>

			if (cea->db_vsdb_hdmi.hdmi_video != 0) {
   83c88:	e0bffc17 	ldw	r2,-16(fp)
   83c8c:	1080aa17 	ldw	r2,680(r2)
   83c90:	10023026 	beq	r2,zero,84554 <edid_print_cea+0x1174>
				switch (cea->db_vsdb_hdmi.multi_3d) {
   83c94:	e0bffc17 	ldw	r2,-16(fp)
   83c98:	1080b117 	ldw	r2,708(r2)
   83c9c:	10c00060 	cmpeqi	r3,r2,1
   83ca0:	18000d1e 	bne	r3,zero,83cd8 <edid_print_cea+0x8f8>
   83ca4:	10c00088 	cmpgei	r3,r2,2
   83ca8:	1800021e 	bne	r3,zero,83cb4 <edid_print_cea+0x8d4>
   83cac:	10000626 	beq	r2,zero,83cc8 <edid_print_cea+0x8e8>
   83cb0:	00001506 	br	83d08 <edid_print_cea+0x928>
   83cb4:	10c000a0 	cmpeqi	r3,r2,2
   83cb8:	18000b1e 	bne	r3,zero,83ce8 <edid_print_cea+0x908>
   83cbc:	108000e0 	cmpeqi	r2,r2,3
   83cc0:	10000d1e 	bne	r2,zero,83cf8 <edid_print_cea+0x918>
   83cc4:	00001006 	br	83d08 <edid_print_cea+0x928>
				case 0:
					printf("         3D-Multi_present              : 2b00 (no 3D_Structure_ALL_15..0, no 3D_MASK_15..0)\n");
   83cc8:	010002b4 	movhi	r4,10
   83ccc:	21296604 	addi	r4,r4,-23144
   83cd0:	008e6680 	call	8e668 <puts>
					break;
   83cd4:	00000c06 	br	83d08 <edid_print_cea+0x928>
				case 1:
					printf("         3D-Multi_present              : 2b01 (with 3D_Structure_ALL_15..0, no 3D_MASK_15..0)\n");
   83cd8:	010002b4 	movhi	r4,10
   83cdc:	21297d04 	addi	r4,r4,-23052
   83ce0:	008e6680 	call	8e668 <puts>
					break;
   83ce4:	00000806 	br	83d08 <edid_print_cea+0x928>
				case 2:
					printf("         3D-Multi_present              : 2b10 (with 3D_Structure_ALL_15..0, with 3D_MASK_15..0)\n");
   83ce8:	010002b4 	movhi	r4,10
   83cec:	21299504 	addi	r4,r4,-22956
   83cf0:	008e6680 	call	8e668 <puts>
					break;
   83cf4:	00000406 	br	83d08 <edid_print_cea+0x928>
				case 3:
					printf("         3D-Multi_present              : 2b11 (no 3D_Structure_ALL_15..0, no 3D_MASK_15..0)\n");
   83cf8:	010002b4 	movhi	r4,10
   83cfc:	2129ad04 	addi	r4,r4,-22860
   83d00:	008e6680 	call	8e668 <puts>
					break;
   83d04:	0001883a 	nop
				}

				if ((cea->db_vsdb_hdmi.multi_3d == 1) || (cea->db_vsdb_hdmi.multi_3d == 2)) {
   83d08:	e0bffc17 	ldw	r2,-16(fp)
   83d0c:	1080b117 	ldw	r2,708(r2)
   83d10:	10800060 	cmpeqi	r2,r2,1
   83d14:	1000041e 	bne	r2,zero,83d28 <edid_print_cea+0x948>
   83d18:	e0bffc17 	ldw	r2,-16(fp)
   83d1c:	1080b117 	ldw	r2,708(r2)
   83d20:	10800098 	cmpnei	r2,r2,2
   83d24:	1000211e 	bne	r2,zero,83dac <edid_print_cea+0x9cc>
					if (cea->db_vsdb_hdmi.struct_all_3d == 0) {
   83d28:	e0bffc17 	ldw	r2,-16(fp)
   83d2c:	1080b517 	ldw	r2,724(r2)
   83d30:	1000041e 	bne	r2,zero,83d44 <edid_print_cea+0x964>
						printf("         3D_Structure_ALL              : none\n");
   83d34:	010002b4 	movhi	r4,10
   83d38:	2129c404 	addi	r4,r4,-22768
   83d3c:	008e6680 	call	8e668 <puts>
   83d40:	00001a06 	br	83dac <edid_print_cea+0x9cc>
					} else {
						printf("         3D_Structure_ALL              : ");
   83d44:	010002b4 	movhi	r4,10
   83d48:	2129d004 	addi	r4,r4,-22720
   83d4c:	008e5840 	call	8e584 <printf>
						if (cea->db_vsdb_hdmi.struct_all_3d & 0x01)
   83d50:	e0bffc17 	ldw	r2,-16(fp)
   83d54:	1080b517 	ldw	r2,724(r2)
   83d58:	1080004c 	andi	r2,r2,1
   83d5c:	10000326 	beq	r2,zero,83d6c <edid_print_cea+0x98c>
							printf("frame_packing ");
   83d60:	010002b4 	movhi	r4,10
   83d64:	2129db04 	addi	r4,r4,-22676
   83d68:	008e5840 	call	8e584 <printf>
						if (cea->db_vsdb_hdmi.struct_all_3d & 0x40)
   83d6c:	e0bffc17 	ldw	r2,-16(fp)
   83d70:	1080b517 	ldw	r2,724(r2)
   83d74:	1080100c 	andi	r2,r2,64
   83d78:	10000326 	beq	r2,zero,83d88 <edid_print_cea+0x9a8>
							printf("top-and-bottom ");
   83d7c:	010002b4 	movhi	r4,10
   83d80:	2129df04 	addi	r4,r4,-22660
   83d84:	008e5840 	call	8e584 <printf>
						if (cea->db_vsdb_hdmi.struct_all_3d & 0x100)
   83d88:	e0bffc17 	ldw	r2,-16(fp)
   83d8c:	1080b517 	ldw	r2,724(r2)
   83d90:	1080400c 	andi	r2,r2,256
   83d94:	10000326 	beq	r2,zero,83da4 <edid_print_cea+0x9c4>
							printf("side-by-side(half h_subsampling)");
   83d98:	010002b4 	movhi	r4,10
   83d9c:	2129e304 	addi	r4,r4,-22644
   83da0:	008e5840 	call	8e584 <printf>
						printf("\n");
   83da4:	01000284 	movi	r4,10
   83da8:	008e5c80 	call	8e5c8 <putchar>
					}
				}

				if (cea->db_vsdb_hdmi.multi_3d == 2) {
   83dac:	e0bffc17 	ldw	r2,-16(fp)
   83db0:	1080b117 	ldw	r2,708(r2)
   83db4:	10800098 	cmpnei	r2,r2,2
   83db8:	1000061e 	bne	r2,zero,83dd4 <edid_print_cea+0x9f4>
					printf("         3D_MASK                       : 0x%04x\n", cea->db_vsdb_hdmi.mask_3d);
   83dbc:	e0bffc17 	ldw	r2,-16(fp)
   83dc0:	1080b617 	ldw	r2,728(r2)
   83dc4:	010002b4 	movhi	r4,10
   83dc8:	2129ec04 	addi	r4,r4,-22608
   83dcc:	100b883a 	mov	r5,r2
   83dd0:	008e5840 	call	8e584 <printf>
				}

				switch (cea->db_vsdb_hdmi.image_size) {
   83dd4:	e0bffc17 	ldw	r2,-16(fp)
   83dd8:	1080b217 	ldw	r2,712(r2)
   83ddc:	10c00060 	cmpeqi	r3,r2,1
   83de0:	18000d1e 	bne	r3,zero,83e18 <edid_print_cea+0xa38>
   83de4:	10c00088 	cmpgei	r3,r2,2
   83de8:	1800021e 	bne	r3,zero,83df4 <edid_print_cea+0xa14>
   83dec:	10000626 	beq	r2,zero,83e08 <edid_print_cea+0xa28>
   83df0:	00001506 	br	83e48 <edid_print_cea+0xa68>
   83df4:	10c000a0 	cmpeqi	r3,r2,2
   83df8:	18000b1e 	bne	r3,zero,83e28 <edid_print_cea+0xa48>
   83dfc:	108000e0 	cmpeqi	r2,r2,3
   83e00:	10000d1e 	bne	r2,zero,83e38 <edid_print_cea+0xa58>
   83e04:	00001006 	br	83e48 <edid_print_cea+0xa68>
				case 0:
					printf("         image size extra properties   : none\n");
   83e08:	010002b4 	movhi	r4,10
   83e0c:	2129f904 	addi	r4,r4,-22556
   83e10:	008e6680 	call	8e668 <puts>
					break;
   83e14:	00000c06 	br	83e48 <edid_print_cea+0xa68>
				case 1:
					printf("         image size extra properties   : exact aspect ratio only\n");
   83e18:	010002b4 	movhi	r4,10
   83e1c:	212a0504 	addi	r4,r4,-22508
   83e20:	008e6680 	call	8e668 <puts>
					break;
   83e24:	00000806 	br	83e48 <edid_print_cea+0xa68>
				case 2:
					printf("         image size extra properties   : size correct (1cm nearest rounded)\n");
   83e28:	010002b4 	movhi	r4,10
   83e2c:	212a1604 	addi	r4,r4,-22440
   83e30:	008e6680 	call	8e668 <puts>
					break;
   83e34:	00000406 	br	83e48 <edid_print_cea+0xa68>
				case 3:
					printf("         image size extra properties   : size correct (div by 5cm nearest rounded)\n");
   83e38:	010002b4 	movhi	r4,10
   83e3c:	212a2904 	addi	r4,r4,-22364
   83e40:	008e6680 	call	8e668 <puts>
					break;
   83e44:	0001883a 	nop
				}

				for (i = 0; i < cea->db_vsdb_hdmi.nr_vic_3d; ++ i) {
   83e48:	e03ff815 	stw	zero,-32(fp)
   83e4c:	00008a06 	br	84078 <edid_print_cea+0xc98>

					printf("         [%02d] 2D_VIC_Order)%02d ", i, cea->db_vsdb_hdmi.vic_3d[i].vic_2d);
   83e50:	e0fffc17 	ldw	r3,-16(fp)
   83e54:	e0bff817 	ldw	r2,-32(fp)
   83e58:	10800324 	muli	r2,r2,12
   83e5c:	1885883a 	add	r2,r3,r2
   83e60:	1080b804 	addi	r2,r2,736
   83e64:	10800017 	ldw	r2,0(r2)
   83e68:	010002b4 	movhi	r4,10
   83e6c:	212a3e04 	addi	r4,r4,-22280
   83e70:	e17ff817 	ldw	r5,-32(fp)
   83e74:	100d883a 	mov	r6,r2
   83e78:	008e5840 	call	8e584 <printf>

					switch (cea->db_vsdb_hdmi.vic_3d[i].struct_3d) {
   83e7c:	e0fffc17 	ldw	r3,-16(fp)
   83e80:	e0bff817 	ldw	r2,-32(fp)
   83e84:	10800324 	muli	r2,r2,12
   83e88:	1885883a 	add	r2,r3,r2
   83e8c:	1080b904 	addi	r2,r2,740
   83e90:	10800017 	ldw	r2,0(r2)
   83e94:	10c00268 	cmpgeui	r3,r2,9
   83e98:	1800301e 	bne	r3,zero,83f5c <edid_print_cea+0xb7c>
   83e9c:	1085883a 	add	r2,r2,r2
   83ea0:	1087883a 	add	r3,r2,r2
   83ea4:	00800234 	movhi	r2,8
   83ea8:	108fae04 	addi	r2,r2,16056
   83eac:	1885883a 	add	r2,r3,r2
   83eb0:	10800017 	ldw	r2,0(r2)
   83eb4:	1000683a 	jmp	r2
   83eb8:	00083edc 	xori	zero,zero,8443
   83ebc:	00083eec 	andhi	zero,zero,8443
   83ec0:	00083efc 	xorhi	zero,zero,8443
   83ec4:	00083f0c 	andi	zero,zero,8444
   83ec8:	00083f1c 	xori	zero,zero,8444
   83ecc:	00083f2c 	andhi	zero,zero,8444
   83ed0:	00083f3c 	xorhi	zero,zero,8444
   83ed4:	00083f5c 	xori	zero,zero,8445
   83ed8:	00083f4c 	andi	zero,zero,8445
					case 0:
						printf("3D_Structure)frame_packing ");
   83edc:	010002b4 	movhi	r4,10
   83ee0:	212a4704 	addi	r4,r4,-22244
   83ee4:	008e5840 	call	8e584 <printf>
						break;
   83ee8:	00002006 	br	83f6c <edid_print_cea+0xb8c>
					case 1:
						printf("3D_Structure)field_alternative ");
   83eec:	010002b4 	movhi	r4,10
   83ef0:	212a4e04 	addi	r4,r4,-22216
   83ef4:	008e5840 	call	8e584 <printf>
						break;
   83ef8:	00001c06 	br	83f6c <edid_print_cea+0xb8c>
					case 2:
						printf("3D_Structure)line_alternative ");
   83efc:	010002b4 	movhi	r4,10
   83f00:	212a5604 	addi	r4,r4,-22184
   83f04:	008e5840 	call	8e584 <printf>
						break;
   83f08:	00001806 	br	83f6c <edid_print_cea+0xb8c>
					case 3:
						printf("3D_Structure)side-by-side(full) ");
   83f0c:	010002b4 	movhi	r4,10
   83f10:	212a5e04 	addi	r4,r4,-22152
   83f14:	008e5840 	call	8e584 <printf>
						break;
   83f18:	00001406 	br	83f6c <edid_print_cea+0xb8c>
					case 4:
						printf("3D_Structure)L+depth ");
   83f1c:	010002b4 	movhi	r4,10
   83f20:	212a6704 	addi	r4,r4,-22116
   83f24:	008e5840 	call	8e584 <printf>
						break;
   83f28:	00001006 	br	83f6c <edid_print_cea+0xb8c>
					case 5:
						printf("3D_Structure)L+depth+graphics+graphics_depth ");
   83f2c:	010002b4 	movhi	r4,10
   83f30:	212a6d04 	addi	r4,r4,-22092
   83f34:	008e5840 	call	8e584 <printf>
						break;
   83f38:	00000c06 	br	83f6c <edid_print_cea+0xb8c>
					case 6:
						printf("3D_Structure)top-and-bottom ");
   83f3c:	010002b4 	movhi	r4,10
   83f40:	212a7904 	addi	r4,r4,-22044
   83f44:	008e5840 	call	8e584 <printf>
						break;
   83f48:	00000806 	br	83f6c <edid_print_cea+0xb8c>
					case 8:
						printf("3D_Structure)side-by-side(half) ");
   83f4c:	010002b4 	movhi	r4,10
   83f50:	212a8104 	addi	r4,r4,-22012
   83f54:	008e5840 	call	8e584 <printf>
						break;
   83f58:	00000406 	br	83f6c <edid_print_cea+0xb8c>
					default:
						printf("3D_Structure)unknown ");
   83f5c:	010002b4 	movhi	r4,10
   83f60:	212a8a04 	addi	r4,r4,-21976
   83f64:	008e5840 	call	8e584 <printf>
						break;
   83f68:	0001883a 	nop
					}

					if (cea->db_vsdb_hdmi.vic_3d[i].struct_3d == 0x08) {
   83f6c:	e0fffc17 	ldw	r3,-16(fp)
   83f70:	e0bff817 	ldw	r2,-32(fp)
   83f74:	10800324 	muli	r2,r2,12
   83f78:	1885883a 	add	r2,r3,r2
   83f7c:	1080b904 	addi	r2,r2,740
   83f80:	10800017 	ldw	r2,0(r2)
   83f84:	10800218 	cmpnei	r2,r2,8
   83f88:	1000361e 	bne	r2,zero,84064 <edid_print_cea+0xc84>
						switch (cea->db_vsdb_hdmi.vic_3d[i].detail_3d) {
   83f8c:	e0fffc17 	ldw	r3,-16(fp)
   83f90:	e0bff817 	ldw	r2,-32(fp)
   83f94:	10800324 	muli	r2,r2,12
   83f98:	1885883a 	add	r2,r3,r2
   83f9c:	1080ba04 	addi	r2,r2,744
   83fa0:	10800017 	ldw	r2,0(r2)
   83fa4:	10c002e8 	cmpgeui	r3,r2,11
   83fa8:	18002e1e 	bne	r3,zero,84064 <edid_print_cea+0xc84>
   83fac:	1085883a 	add	r2,r2,r2
   83fb0:	1087883a 	add	r3,r2,r2
   83fb4:	00800234 	movhi	r2,8
   83fb8:	108ff204 	addi	r2,r2,16328
   83fbc:	1885883a 	add	r2,r3,r2
   83fc0:	10800017 	ldw	r2,0(r2)
   83fc4:	1000683a 	jmp	r2
   83fc8:	00083ff4 	movhi	zero,8447
   83fcc:	00084004 	movi	zero,8448
   83fd0:	00084064 	muli	zero,zero,8449
   83fd4:	00084064 	muli	zero,zero,8449
   83fd8:	00084064 	muli	zero,zero,8449
   83fdc:	00084064 	muli	zero,zero,8449
   83fe0:	00084014 	movui	zero,8448
   83fe4:	00084024 	muli	zero,zero,8448
   83fe8:	00084034 	movhi	zero,8448
   83fec:	00084044 	movi	zero,8449
   83ff0:	00084054 	movui	zero,8449
						case 0:
							printf("3D_Detail)h_sub_sampling+four_quincunx_matrix");
   83ff4:	010002b4 	movhi	r4,10
   83ff8:	212a9004 	addi	r4,r4,-21952
   83ffc:	008e5840 	call	8e584 <printf>
							break;
   84000:	00001806 	br	84064 <edid_print_cea+0xc84>
						case 1:
							printf("3D_Detail)h_sub_sampling");
   84004:	010002b4 	movhi	r4,10
   84008:	212a9c04 	addi	r4,r4,-21904
   8400c:	008e5840 	call	8e584 <printf>
							break;
   84010:	00001406 	br	84064 <edid_print_cea+0xc84>
						case 6:
							printf("3D_Detail)all_4_sub_sampling_position");
   84014:	010002b4 	movhi	r4,10
   84018:	212aa304 	addi	r4,r4,-21876
   8401c:	008e5840 	call	8e584 <printf>
							break;
   84020:	00001006 	br	84064 <edid_print_cea+0xc84>
						case 7:
							printf("3D_Detail)odd_left+odd_right");
   84024:	010002b4 	movhi	r4,10
   84028:	212aad04 	addi	r4,r4,-21836
   8402c:	008e5840 	call	8e584 <printf>
							break;
   84030:	00000c06 	br	84064 <edid_print_cea+0xc84>
						case 8:
							printf("3D_Detail)odd_left+even_right");
   84034:	010002b4 	movhi	r4,10
   84038:	212ab504 	addi	r4,r4,-21804
   8403c:	008e5840 	call	8e584 <printf>
							break;
   84040:	00000806 	br	84064 <edid_print_cea+0xc84>
						case 9:
							printf("3D_Detail)even_left+odd_right");
   84044:	010002b4 	movhi	r4,10
   84048:	212abd04 	addi	r4,r4,-21772
   8404c:	008e5840 	call	8e584 <printf>
							break;
   84050:	00000406 	br	84064 <edid_print_cea+0xc84>
						case 10:
							printf("3D_Detail)even_left+even_right");
   84054:	010002b4 	movhi	r4,10
   84058:	212ac504 	addi	r4,r4,-21740
   8405c:	008e5840 	call	8e584 <printf>
							break;
   84060:	0001883a 	nop
						}
					}

					printf("\n");
   84064:	01000284 	movi	r4,10
   84068:	008e5c80 	call	8e5c8 <putchar>
				case 3:
					printf("         image size extra properties   : size correct (div by 5cm nearest rounded)\n");
					break;
				}

				for (i = 0; i < cea->db_vsdb_hdmi.nr_vic_3d; ++ i) {
   8406c:	e0bff817 	ldw	r2,-32(fp)
   84070:	10800044 	addi	r2,r2,1
   84074:	e0bff815 	stw	r2,-32(fp)
   84078:	e0bffc17 	ldw	r2,-16(fp)
   8407c:	1080b717 	ldw	r2,732(r2)
   84080:	e0fff817 	ldw	r3,-32(fp)
   84084:	18bf7216 	blt	r3,r2,83e50 <edid_print_cea+0xa70>

					printf("\n");
				}
			}

			break;
   84088:	00013206 	br	84554 <edid_print_cea+0x1174>

		case CEA_DB_SPEAKER:
			printf("\n  [%02d] speaker allocation data block ...\n", t);
   8408c:	010002b4 	movhi	r4,10
   84090:	212acd04 	addi	r4,r4,-21708
   84094:	e17ff917 	ldw	r5,-28(fp)
   84098:	008e5840 	call	8e584 <printf>

			printf("       RLC/RRC : %s\n", cea->db_speaker.designation & CEA_SPK_RLC_RRC ? "yes" : "no");
   8409c:	e0bffc17 	ldw	r2,-16(fp)
   840a0:	10809b17 	ldw	r2,620(r2)
   840a4:	1080100c 	andi	r2,r2,64
   840a8:	10000326 	beq	r2,zero,840b8 <edid_print_cea+0xcd8>
   840ac:	008002b4 	movhi	r2,10
   840b0:	10a7d704 	addi	r2,r2,-24740
   840b4:	00000206 	br	840c0 <edid_print_cea+0xce0>
   840b8:	008002b4 	movhi	r2,10
   840bc:	10a7d804 	addi	r2,r2,-24736
   840c0:	010002b4 	movhi	r4,10
   840c4:	212ad904 	addi	r4,r4,-21660
   840c8:	100b883a 	mov	r5,r2
   840cc:	008e5840 	call	8e584 <printf>
			printf("       FLC/FRC : %s\n", cea->db_speaker.designation & CEA_SPK_FLC_FRC ? "yes" : "no");
   840d0:	e0bffc17 	ldw	r2,-16(fp)
   840d4:	10809b17 	ldw	r2,620(r2)
   840d8:	1080080c 	andi	r2,r2,32
   840dc:	10000326 	beq	r2,zero,840ec <edid_print_cea+0xd0c>
   840e0:	008002b4 	movhi	r2,10
   840e4:	10a7d704 	addi	r2,r2,-24740
   840e8:	00000206 	br	840f4 <edid_print_cea+0xd14>
   840ec:	008002b4 	movhi	r2,10
   840f0:	10a7d804 	addi	r2,r2,-24736
   840f4:	010002b4 	movhi	r4,10
   840f8:	212adf04 	addi	r4,r4,-21636
   840fc:	100b883a 	mov	r5,r2
   84100:	008e5840 	call	8e584 <printf>
			printf("       RC      : %s\n", cea->db_speaker.designation & CEA_SPK_RC ? "yes" : "no");
   84104:	e0bffc17 	ldw	r2,-16(fp)
   84108:	10809b17 	ldw	r2,620(r2)
   8410c:	1080040c 	andi	r2,r2,16
   84110:	10000326 	beq	r2,zero,84120 <edid_print_cea+0xd40>
   84114:	008002b4 	movhi	r2,10
   84118:	10a7d704 	addi	r2,r2,-24740
   8411c:	00000206 	br	84128 <edid_print_cea+0xd48>
   84120:	008002b4 	movhi	r2,10
   84124:	10a7d804 	addi	r2,r2,-24736
   84128:	010002b4 	movhi	r4,10
   8412c:	212ae504 	addi	r4,r4,-21612
   84130:	100b883a 	mov	r5,r2
   84134:	008e5840 	call	8e584 <printf>
			printf("       RL/RR   : %s\n", cea->db_speaker.designation & CEA_SPK_RL_RR ? "yes" : "no");
   84138:	e0bffc17 	ldw	r2,-16(fp)
   8413c:	10809b17 	ldw	r2,620(r2)
   84140:	1080020c 	andi	r2,r2,8
   84144:	10000326 	beq	r2,zero,84154 <edid_print_cea+0xd74>
   84148:	008002b4 	movhi	r2,10
   8414c:	10a7d704 	addi	r2,r2,-24740
   84150:	00000206 	br	8415c <edid_print_cea+0xd7c>
   84154:	008002b4 	movhi	r2,10
   84158:	10a7d804 	addi	r2,r2,-24736
   8415c:	010002b4 	movhi	r4,10
   84160:	212aeb04 	addi	r4,r4,-21588
   84164:	100b883a 	mov	r5,r2
   84168:	008e5840 	call	8e584 <printf>
			printf("       FC      : %s\n", cea->db_speaker.designation & CEA_SPK_FC ? "yes" : "no");
   8416c:	e0bffc17 	ldw	r2,-16(fp)
   84170:	10809b17 	ldw	r2,620(r2)
   84174:	1080010c 	andi	r2,r2,4
   84178:	10000326 	beq	r2,zero,84188 <edid_print_cea+0xda8>
   8417c:	008002b4 	movhi	r2,10
   84180:	10a7d704 	addi	r2,r2,-24740
   84184:	00000206 	br	84190 <edid_print_cea+0xdb0>
   84188:	008002b4 	movhi	r2,10
   8418c:	10a7d804 	addi	r2,r2,-24736
   84190:	010002b4 	movhi	r4,10
   84194:	212af104 	addi	r4,r4,-21564
   84198:	100b883a 	mov	r5,r2
   8419c:	008e5840 	call	8e584 <printf>
			printf("       LFE     : %s\n", cea->db_speaker.designation & CEA_SPK_LFE ? "yes" : "no");
   841a0:	e0bffc17 	ldw	r2,-16(fp)
   841a4:	10809b17 	ldw	r2,620(r2)
   841a8:	1080008c 	andi	r2,r2,2
   841ac:	10000326 	beq	r2,zero,841bc <edid_print_cea+0xddc>
   841b0:	008002b4 	movhi	r2,10
   841b4:	10a7d704 	addi	r2,r2,-24740
   841b8:	00000206 	br	841c4 <edid_print_cea+0xde4>
   841bc:	008002b4 	movhi	r2,10
   841c0:	10a7d804 	addi	r2,r2,-24736
   841c4:	010002b4 	movhi	r4,10
   841c8:	212af704 	addi	r4,r4,-21540
   841cc:	100b883a 	mov	r5,r2
   841d0:	008e5840 	call	8e584 <printf>
			printf("       FL/FR   : %s\n", cea->db_speaker.designation & CEA_SPK_FL_FR ? "yes" : "no");
   841d4:	e0bffc17 	ldw	r2,-16(fp)
   841d8:	10809b17 	ldw	r2,620(r2)
   841dc:	1080004c 	andi	r2,r2,1
   841e0:	10000326 	beq	r2,zero,841f0 <edid_print_cea+0xe10>
   841e4:	008002b4 	movhi	r2,10
   841e8:	10a7d704 	addi	r2,r2,-24740
   841ec:	00000206 	br	841f8 <edid_print_cea+0xe18>
   841f0:	008002b4 	movhi	r2,10
   841f4:	10a7d804 	addi	r2,r2,-24736
   841f8:	010002b4 	movhi	r4,10
   841fc:	212afd04 	addi	r4,r4,-21516
   84200:	100b883a 	mov	r5,r2
   84204:	008e5840 	call	8e584 <printf>

			break;
   84208:	0000d506 	br	84560 <edid_print_cea+0x1180>

		case CEA_DB_DTC:
			printf("\n  [%02d] VESA DTC data block ... (todo)\n", t);
   8420c:	010002b4 	movhi	r4,10
   84210:	212b0304 	addi	r4,r4,-21492
   84214:	e17ff917 	ldw	r5,-28(fp)
   84218:	008e5840 	call	8e584 <printf>
			break;
   8421c:	0000d006 	br	84560 <edid_print_cea+0x1180>

		case CEA_DB_EXTENDED:
			switch (cea->dbe_tags[t]) {
   84220:	e0fffc17 	ldw	r3,-16(fp)
   84224:	e0bff917 	ldw	r2,-28(fp)
   84228:	1885883a 	add	r2,r3,r2
   8422c:	10801704 	addi	r2,r2,92
   84230:	10800083 	ldbu	r2,2(r2)
   84234:	10803fcc 	andi	r2,r2,255
   84238:	10c004e8 	cmpgeui	r3,r2,19
   8423c:	1800c71e 	bne	r3,zero,8455c <edid_print_cea+0x117c>
   84240:	1085883a 	add	r2,r2,r2
   84244:	1087883a 	add	r3,r2,r2
   84248:	00800234 	movhi	r2,8
   8424c:	10909704 	addi	r2,r2,16988
   84250:	1885883a 	add	r2,r3,r2
   84254:	10800017 	ldw	r2,0(r2)
   84258:	1000683a 	jmp	r2
   8425c:	000842a8 	cmpgeui	zero,zero,8458
   84260:	00084448 	cmpgei	zero,zero,8465
   84264:	0008445c 	xori	zero,zero,8465
   84268:	00084470 	cmpltui	zero,zero,8465
   8426c:	00084484 	movi	zero,8466
   84270:	00084498 	cmpnei	zero,zero,8466
   84274:	0008455c 	xori	zero,zero,8469
   84278:	0008455c 	xori	zero,zero,8469
   8427c:	0008455c 	xori	zero,zero,8469
   84280:	0008455c 	xori	zero,zero,8469
   84284:	0008455c 	xori	zero,zero,8469
   84288:	0008455c 	xori	zero,zero,8469
   8428c:	0008455c 	xori	zero,zero,8469
   84290:	0008455c 	xori	zero,zero,8469
   84294:	0008455c 	xori	zero,zero,8469
   84298:	0008455c 	xori	zero,zero,8469
   8429c:	000844e4 	muli	zero,zero,8467
   842a0:	000844f8 	rdprs	zero,zero,8467
   842a4:	0008450c 	andi	zero,zero,8468
			case CEA_DBE_VIDEO_CAP:
				printf("\n  [%02d] video capability data block (ext) ...\n", t);
   842a8:	010002b4 	movhi	r4,10
   842ac:	212b0e04 	addi	r4,r4,-21448
   842b0:	e17ff917 	ldw	r5,-28(fp)
   842b4:	008e5840 	call	8e584 <printf>

				printf("       quantization range selectable : %s\n", cea->db_vcdb.quant_range_sel ? "yes" : "no");
   842b8:	e0bffc17 	ldw	r2,-16(fp)
   842bc:	1080ea17 	ldw	r2,936(r2)
   842c0:	10000326 	beq	r2,zero,842d0 <edid_print_cea+0xef0>
   842c4:	008002b4 	movhi	r2,10
   842c8:	10a7d704 	addi	r2,r2,-24740
   842cc:	00000206 	br	842d8 <edid_print_cea+0xef8>
   842d0:	008002b4 	movhi	r2,10
   842d4:	10a7d804 	addi	r2,r2,-24736
   842d8:	010002b4 	movhi	r4,10
   842dc:	212b1b04 	addi	r4,r4,-21396
   842e0:	100b883a 	mov	r5,r2
   842e4:	008e5840 	call	8e584 <printf>

				switch (cea->db_vcdb.pt_scan_behavior) {
   842e8:	e0bffc17 	ldw	r2,-16(fp)
   842ec:	1080eb17 	ldw	r2,940(r2)
   842f0:	10c00060 	cmpeqi	r3,r2,1
   842f4:	18000d1e 	bne	r3,zero,8432c <edid_print_cea+0xf4c>
   842f8:	10c00088 	cmpgei	r3,r2,2
   842fc:	1800021e 	bne	r3,zero,84308 <edid_print_cea+0xf28>
   84300:	10000626 	beq	r2,zero,8431c <edid_print_cea+0xf3c>
   84304:	00001506 	br	8435c <edid_print_cea+0xf7c>
   84308:	10c000a0 	cmpeqi	r3,r2,2
   8430c:	18000b1e 	bne	r3,zero,8433c <edid_print_cea+0xf5c>
   84310:	108000e0 	cmpeqi	r2,r2,3
   84314:	10000d1e 	bne	r2,zero,8434c <edid_print_cea+0xf6c>
   84318:	00001006 	br	8435c <edid_print_cea+0xf7c>
				case 0:
					printf("       PT scan behavior              : none\n");
   8431c:	010002b4 	movhi	r4,10
   84320:	212b2604 	addi	r4,r4,-21352
   84324:	008e6680 	call	8e668 <puts>
					break;
   84328:	00000c06 	br	8435c <edid_print_cea+0xf7c>
				case 1:
					printf("       PT scan behavior              : overscanned always\n");
   8432c:	010002b4 	movhi	r4,10
   84330:	212b3104 	addi	r4,r4,-21308
   84334:	008e6680 	call	8e668 <puts>
					break;
   84338:	00000806 	br	8435c <edid_print_cea+0xf7c>
				case 2:
					printf("       PT scan behavior              : underscanned always\n");
   8433c:	010002b4 	movhi	r4,10
   84340:	212b4004 	addi	r4,r4,-21248
   84344:	008e6680 	call	8e668 <puts>
					break;
   84348:	00000406 	br	8435c <edid_print_cea+0xf7c>
				case 3:
					printf("       PT scan behavior              : supports both over/under-scan\n");
   8434c:	010002b4 	movhi	r4,10
   84350:	212b4f04 	addi	r4,r4,-21188
   84354:	008e6680 	call	8e668 <puts>
					break;
   84358:	0001883a 	nop
				}

				switch (cea->db_vcdb.it_scan_behavior) {
   8435c:	e0bffc17 	ldw	r2,-16(fp)
   84360:	1080ec17 	ldw	r2,944(r2)
   84364:	10c00060 	cmpeqi	r3,r2,1
   84368:	18000d1e 	bne	r3,zero,843a0 <edid_print_cea+0xfc0>
   8436c:	10c00088 	cmpgei	r3,r2,2
   84370:	1800021e 	bne	r3,zero,8437c <edid_print_cea+0xf9c>
   84374:	10000626 	beq	r2,zero,84390 <edid_print_cea+0xfb0>
   84378:	00001506 	br	843d0 <edid_print_cea+0xff0>
   8437c:	10c000a0 	cmpeqi	r3,r2,2
   84380:	18000b1e 	bne	r3,zero,843b0 <edid_print_cea+0xfd0>
   84384:	108000e0 	cmpeqi	r2,r2,3
   84388:	10000d1e 	bne	r2,zero,843c0 <edid_print_cea+0xfe0>
   8438c:	00001006 	br	843d0 <edid_print_cea+0xff0>
				case 0:
					printf("       IT scan behavior              : none\n");
   84390:	010002b4 	movhi	r4,10
   84394:	212b6104 	addi	r4,r4,-21116
   84398:	008e6680 	call	8e668 <puts>
					break;
   8439c:	00000c06 	br	843d0 <edid_print_cea+0xff0>
				case 1:
					printf("       IT scan behavior              : overscanned always\n");
   843a0:	010002b4 	movhi	r4,10
   843a4:	212b6c04 	addi	r4,r4,-21072
   843a8:	008e6680 	call	8e668 <puts>
					break;
   843ac:	00000806 	br	843d0 <edid_print_cea+0xff0>
				case 2:
					printf("       IT scan behavior              : underscanned always\n");
   843b0:	010002b4 	movhi	r4,10
   843b4:	212b7b04 	addi	r4,r4,-21012
   843b8:	008e6680 	call	8e668 <puts>
					break;
   843bc:	00000406 	br	843d0 <edid_print_cea+0xff0>
				case 3:
					printf("       IT scan behavior              : supports both over/under-scan\n");
   843c0:	010002b4 	movhi	r4,10
   843c4:	212b8a04 	addi	r4,r4,-20952
   843c8:	008e6680 	call	8e668 <puts>
					break;
   843cc:	0001883a 	nop
				}

				switch (cea->db_vcdb.ce_scan_behavior) {
   843d0:	e0bffc17 	ldw	r2,-16(fp)
   843d4:	1080ed17 	ldw	r2,948(r2)
   843d8:	10c00060 	cmpeqi	r3,r2,1
   843dc:	18000d1e 	bne	r3,zero,84414 <edid_print_cea+0x1034>
   843e0:	10c00088 	cmpgei	r3,r2,2
   843e4:	1800021e 	bne	r3,zero,843f0 <edid_print_cea+0x1010>
   843e8:	10000626 	beq	r2,zero,84404 <edid_print_cea+0x1024>
   843ec:	00001506 	br	84444 <edid_print_cea+0x1064>
   843f0:	10c000a0 	cmpeqi	r3,r2,2
   843f4:	18000b1e 	bne	r3,zero,84424 <edid_print_cea+0x1044>
   843f8:	108000e0 	cmpeqi	r2,r2,3
   843fc:	10000d1e 	bne	r2,zero,84434 <edid_print_cea+0x1054>
   84400:	00001006 	br	84444 <edid_print_cea+0x1064>
				case 0:
					printf("       CE scan behavior              : none\n");
   84404:	010002b4 	movhi	r4,10
   84408:	212b9c04 	addi	r4,r4,-20880
   8440c:	008e6680 	call	8e668 <puts>
					break;
   84410:	00000c06 	br	84444 <edid_print_cea+0x1064>
				case 1:
					printf("       CE scan behavior              : overscanned always\n");
   84414:	010002b4 	movhi	r4,10
   84418:	212ba704 	addi	r4,r4,-20836
   8441c:	008e6680 	call	8e668 <puts>
					break;
   84420:	00000806 	br	84444 <edid_print_cea+0x1064>
				case 2:
					printf("       CE scan behavior              : underscanned always\n");
   84424:	010002b4 	movhi	r4,10
   84428:	212bb604 	addi	r4,r4,-20776
   8442c:	008e6680 	call	8e668 <puts>
					break;
   84430:	00000406 	br	84444 <edid_print_cea+0x1064>
				case 3:
					printf("       CE scan behavior              : supports both over/under-scan\n");
   84434:	010002b4 	movhi	r4,10
   84438:	212bc504 	addi	r4,r4,-20716
   8443c:	008e6680 	call	8e668 <puts>
					break;
   84440:	0001883a 	nop
				}
				break;
   84444:	00003606 	br	84520 <edid_print_cea+0x1140>
			case CEA_DBE_VIDEO_VENDOR:
				printf("\n  [%02d] vendor-specific video data block (ext) ... (todo)\n", t);
   84448:	010002b4 	movhi	r4,10
   8444c:	212bd704 	addi	r4,r4,-20644
   84450:	e17ff917 	ldw	r5,-28(fp)
   84454:	008e5840 	call	8e584 <printf>
				break;
   84458:	00003106 	br	84520 <edid_print_cea+0x1140>
			case CEA_DBE_VIDEO_DDI:
				printf("\n  [%02d] VESA video display device information data block (ext) ... (todo)\n", t);
   8445c:	010002b4 	movhi	r4,10
   84460:	212be704 	addi	r4,r4,-20580
   84464:	e17ff917 	ldw	r5,-28(fp)
   84468:	008e5840 	call	8e584 <printf>
				break;
   8446c:	00002c06 	br	84520 <edid_print_cea+0x1140>
			case CEA_DBE_VIDEO_VESA:
				printf("\n  [%02d] VESA video data block (ext) ... (todo)\n", t);
   84470:	010002b4 	movhi	r4,10
   84474:	212bfb04 	addi	r4,r4,-20500
   84478:	e17ff917 	ldw	r5,-28(fp)
   8447c:	008e5840 	call	8e584 <printf>
				break;
   84480:	00002706 	br	84520 <edid_print_cea+0x1140>
			case CEA_DBE_VIDEO_HDMI:
				printf("\n  [%02d] HDMI video data block (ext) ... (todo)\n", t);
